

Microchip MPLAB XC8 Assembler V3.00 build 20241204225717 
                                                                                               Tue Jul 01 16:36:12 2025

Microchip MPLAB XC8 C Compiler v3.00 (Free license) build 20241204225717 Og1 
     1                           	processor	16F877A
     2                           	pagewidth 120
     3                           	opt	flic
     4                           	psect	idataCOMMON,global,class=CODE,space=0,delta=2,noexec
     5                           	psect	idataBANK1,global,class=CODE,space=0,delta=2,noexec
     6                           	psect	strings,global,class=STRING,space=0,delta=2,noexec
     7                           	psect	stringtext,global,reloc=256,class=STRCODE,space=0,delta=2,noexec
     8                           	psect	cinit,global,class=CODE,space=0,merge=1,delta=2
     9                           	psect	dataCOMMON,global,class=COMMON,space=1,delta=1,noexec
    10                           	psect	bssBANK0,global,class=BANK0,space=1,delta=1,noexec
    11                           	psect	bssBANK1,global,class=BANK1,space=1,delta=1,noexec
    12                           	psect	dataBANK1,global,class=BANK1,space=1,delta=1,noexec
    13                           	psect	inittext,global,class=CODE,space=0,delta=2
    14                           	psect	cstackBANK1,global,class=BANK1,space=1,delta=1,noexec
    15                           	psect	cstackCOMMON,global,class=COMMON,space=1,delta=1,noexec
    16                           	psect	cstackBANK0,global,class=BANK0,space=1,delta=1,noexec
    17                           	psect	maintext,global,class=CODE,space=0,split=1,delta=2
    18                           	psect	text1,local,class=CODE,space=0,merge=1,delta=2
    19                           	psect	text2,local,class=CODE,space=0,merge=1,delta=2
    20                           	psect	text3,local,class=CODE,space=0,merge=1,delta=2
    21                           	psect	text4,local,class=CODE,space=0,merge=1,delta=2
    22                           	psect	text5,local,class=CODE,space=0,merge=1,delta=2
    23                           	psect	text6,local,class=CODE,space=0,merge=1,delta=2,group=1
    24                           	psect	text7,local,class=CODE,space=0,merge=1,delta=2,group=1
    25                           	psect	text8,local,class=CODE,space=0,merge=1,delta=2,group=1
    26                           	psect	text9,local,class=CODE,space=0,merge=1,delta=2,group=1
    27                           	psect	text10,local,class=CODE,space=0,merge=1,delta=2,group=1
    28                           	psect	text11,local,class=CODE,space=0,merge=1,delta=2,group=1
    29                           	psect	text12,local,class=CODE,space=0,merge=1,delta=2,group=1
    30                           	psect	text13,local,class=CODE,space=0,merge=1,delta=2,group=1
    31                           	psect	text14,local,class=CODE,space=0,merge=1,delta=2,group=1
    32                           	psect	text15,local,class=CODE,space=0,merge=1,delta=2,group=1
    33                           	psect	text16,local,class=CODE,space=0,merge=1,delta=2
    34                           	psect	text17,local,class=CODE,space=0,merge=1,delta=2
    35                           	psect	text18,local,class=CODE,space=0,merge=1,delta=2
    36                           	psect	text19,local,class=CODE,space=0,merge=1,delta=2
    37                           	psect	text20,local,class=CODE,space=0,merge=1,delta=2
    38                           	psect	text21,local,class=CODE,space=0,merge=1,delta=2
    39                           	psect	text22,local,class=CODE,space=0,merge=1,delta=2
    40                           	psect	text23,local,class=CODE,space=0,merge=1,delta=2
    41                           	psect	text24,local,class=CODE,space=0,merge=1,delta=2
    42                           	psect	text25,local,class=CODE,space=0,merge=1,delta=2
    43                           	psect	text26,local,class=CODE,space=0,merge=1,delta=2
    44                           	psect	text27,local,class=CODE,space=0,merge=1,delta=2
    45                           	psect	intentry,global,class=CODE,space=0,delta=2
    46                           	psect	config,global,abs,ovrld,class=CONFIG,space=4,delta=2,noexec
    47                           	dabs	1,0x7E,2
    48     0000                     
    49                           ; Version 2.20
    50                           ; Generated 12/02/2020 GMT
    51                           ; 
    52                           ; Copyright © 2020, Microchip Technology Inc. and its subsidiaries ("Microchip")
    53                           ; All rights reserved.
    54                           ; 
    55                           ; This software is developed by Microchip Technology Inc. and its subsidiaries ("Microch
      +                          ip").
    56                           ; 
    57                           ; Redistribution and use in source and binary forms, with or without modification, are
    58                           ; permitted provided that the following conditions are met:
    59                           ; 
    60                           ;     1. Redistributions of source code must retain the above copyright notice, this lis
      +                          t of
    61                           ;        conditions and the following disclaimer.
    62                           ; 
    63                           ;     2. Redistributions in binary form must reproduce the above copyright notice, this 
      +                          list
    64                           ;        of conditions and the following disclaimer in the documentation and/or other
    65                           ;        materials provided with the distribution.
    66                           ; 
    67                           ;     3. Microchip's name may not be used to endorse or promote products derived from th
      +                          is
    68                           ;        software without specific prior written permission.
    69                           ; 
    70                           ; THIS SOFTWARE IS PROVIDED BY MICROCHIP "AS IS" AND ANY EXPRESS OR IMPLIED WARRANTIES,
    71                           ; INCLUDING, BUT NOT LIMITED TO, THE IMPLIED WARRANTIES OF MERCHANTABILITY AND FITNESS F
      +                          OR
    72                           ; PURPOSE ARE DISCLAIMED.  IN NO EVENT SHALL MICROCHIP BE LIABLE FOR ANY DIRECT, INDIREC
      +                          T,
    73                           ; INCIDENTAL, SPECIAL, EXEMPLARY, OR CONSEQUENTIAL DAMAGES (INCLUDING BUT NOT LIMITED TO
    74                           ; PROCUREMENT OF SUBSTITUTE GOODS OR SERVICES; LOSS OF USE, DATA OR PROFITS; OR BUSINESS
    75                           ; INTERRUPTION) HOWSOEVER CAUSED AND ON ANY THEORY OF LIABILITY, WHETHER IN CONTRACT, ST
      +                          RICT
    76                           ; LIABILITY, OR TORT (INCLUDING NEGLIGENCE OR OTHERWISE) ARISING IN ANY WAY OUT OF THE U
      +                          SE OF
    77                           ; THIS SOFTWARE, EVEN IF ADVISED OF THE POSSIBILITY OF SUCH DAMAGE.
    78                           ; 
    79                           ; 
    80                           ; Code-generator required, PIC16F877A Definitions
    81                           ; 
    82                           ; SFR Addresses
    83     0004                     fsr             equ	4
    84     0004                     fsr0            equ	4
    85     0000                     indf            equ	0
    86     0000                     indf0           equ	0
    87     0002                     pc              equ	2
    88     0002                     pcl             equ	2
    89     000A                     pclath          equ	10
    90     0003                     status          equ	3
    91     0000                     INDF            equ	0	;# 
    92     0001                     TMR0            equ	1	;# 
    93     0002                     PCL             equ	2	;# 
    94     0003                     STATUS          equ	3	;# 
    95     0004                     FSR             equ	4	;# 
    96     0005                     PORTA           equ	5	;# 
    97     0006                     PORTB           equ	6	;# 
    98     0007                     PORTC           equ	7	;# 
    99     0008                     PORTD           equ	8	;# 
   100     0009                     PORTE           equ	9	;# 
   101     000A                     PCLATH          equ	10	;# 
   102     000B                     INTCON          equ	11	;# 
   103     000C                     PIR1            equ	12	;# 
   104     000D                     PIR2            equ	13	;# 
   105     000E                     TMR1            equ	14	;# 
   106     000E                     TMR1L           equ	14	;# 
   107     000F                     TMR1H           equ	15	;# 
   108     0010                     T1CON           equ	16	;# 
   109     0011                     TMR2            equ	17	;# 
   110     0012                     T2CON           equ	18	;# 
   111     0013                     SSPBUF          equ	19	;# 
   112     0014                     SSPCON          equ	20	;# 
   113     0015                     CCPR1           equ	21	;# 
   114     0015                     CCPR1L          equ	21	;# 
   115     0016                     CCPR1H          equ	22	;# 
   116     0017                     CCP1CON         equ	23	;# 
   117     0018                     RCSTA           equ	24	;# 
   118     0019                     TXREG           equ	25	;# 
   119     001A                     RCREG           equ	26	;# 
   120     001B                     CCPR2           equ	27	;# 
   121     001B                     CCPR2L          equ	27	;# 
   122     001C                     CCPR2H          equ	28	;# 
   123     001D                     CCP2CON         equ	29	;# 
   124     001E                     ADRESH          equ	30	;# 
   125     001F                     ADCON0          equ	31	;# 
   126     0081                     OPTION_REG      equ	129	;# 
   127     0085                     TRISA           equ	133	;# 
   128     0086                     TRISB           equ	134	;# 
   129     0087                     TRISC           equ	135	;# 
   130     0088                     TRISD           equ	136	;# 
   131     0089                     TRISE           equ	137	;# 
   132     008C                     PIE1            equ	140	;# 
   133     008D                     PIE2            equ	141	;# 
   134     008E                     PCON            equ	142	;# 
   135     0091                     SSPCON2         equ	145	;# 
   136     0092                     PR2             equ	146	;# 
   137     0093                     SSPADD          equ	147	;# 
   138     0094                     SSPSTAT         equ	148	;# 
   139     0098                     TXSTA           equ	152	;# 
   140     0099                     SPBRG           equ	153	;# 
   141     009C                     CMCON           equ	156	;# 
   142     009D                     CVRCON          equ	157	;# 
   143     009E                     ADRESL          equ	158	;# 
   144     009F                     ADCON1          equ	159	;# 
   145     010C                     EEDATA          equ	268	;# 
   146     010D                     EEADR           equ	269	;# 
   147     010E                     EEDATH          equ	270	;# 
   148     010F                     EEADRH          equ	271	;# 
   149     018C                     EECON1          equ	396	;# 
   150     018D                     EECON2          equ	397	;# 
   151     0000                     INDF            equ	0	;# 
   152     0001                     TMR0            equ	1	;# 
   153     0002                     PCL             equ	2	;# 
   154     0003                     STATUS          equ	3	;# 
   155     0004                     FSR             equ	4	;# 
   156     0005                     PORTA           equ	5	;# 
   157     0006                     PORTB           equ	6	;# 
   158     0007                     PORTC           equ	7	;# 
   159     0008                     PORTD           equ	8	;# 
   160     0009                     PORTE           equ	9	;# 
   161     000A                     PCLATH          equ	10	;# 
   162     000B                     INTCON          equ	11	;# 
   163     000C                     PIR1            equ	12	;# 
   164     000D                     PIR2            equ	13	;# 
   165     000E                     TMR1            equ	14	;# 
   166     000E                     TMR1L           equ	14	;# 
   167     000F                     TMR1H           equ	15	;# 
   168     0010                     T1CON           equ	16	;# 
   169     0011                     TMR2            equ	17	;# 
   170     0012                     T2CON           equ	18	;# 
   171     0013                     SSPBUF          equ	19	;# 
   172     0014                     SSPCON          equ	20	;# 
   173     0015                     CCPR1           equ	21	;# 
   174     0015                     CCPR1L          equ	21	;# 
   175     0016                     CCPR1H          equ	22	;# 
   176     0017                     CCP1CON         equ	23	;# 
   177     0018                     RCSTA           equ	24	;# 
   178     0019                     TXREG           equ	25	;# 
   179     001A                     RCREG           equ	26	;# 
   180     001B                     CCPR2           equ	27	;# 
   181     001B                     CCPR2L          equ	27	;# 
   182     001C                     CCPR2H          equ	28	;# 
   183     001D                     CCP2CON         equ	29	;# 
   184     001E                     ADRESH          equ	30	;# 
   185     001F                     ADCON0          equ	31	;# 
   186     0081                     OPTION_REG      equ	129	;# 
   187     0085                     TRISA           equ	133	;# 
   188     0086                     TRISB           equ	134	;# 
   189     0087                     TRISC           equ	135	;# 
   190     0088                     TRISD           equ	136	;# 
   191     0089                     TRISE           equ	137	;# 
   192     008C                     PIE1            equ	140	;# 
   193     008D                     PIE2            equ	141	;# 
   194     008E                     PCON            equ	142	;# 
   195     0091                     SSPCON2         equ	145	;# 
   196     0092                     PR2             equ	146	;# 
   197     0093                     SSPADD          equ	147	;# 
   198     0094                     SSPSTAT         equ	148	;# 
   199     0098                     TXSTA           equ	152	;# 
   200     0099                     SPBRG           equ	153	;# 
   201     009C                     CMCON           equ	156	;# 
   202     009D                     CVRCON          equ	157	;# 
   203     009E                     ADRESL          equ	158	;# 
   204     009F                     ADCON1          equ	159	;# 
   205     010C                     EEDATA          equ	268	;# 
   206     010D                     EEADR           equ	269	;# 
   207     010E                     EEDATH          equ	270	;# 
   208     010F                     EEADRH          equ	271	;# 
   209     018C                     EECON1          equ	396	;# 
   210     018D                     EECON2          equ	397	;# 
   211     0000                     INDF            equ	0	;# 
   212     0001                     TMR0            equ	1	;# 
   213     0002                     PCL             equ	2	;# 
   214     0003                     STATUS          equ	3	;# 
   215     0004                     FSR             equ	4	;# 
   216     0005                     PORTA           equ	5	;# 
   217     0006                     PORTB           equ	6	;# 
   218     0007                     PORTC           equ	7	;# 
   219     0008                     PORTD           equ	8	;# 
   220     0009                     PORTE           equ	9	;# 
   221     000A                     PCLATH          equ	10	;# 
   222     000B                     INTCON          equ	11	;# 
   223     000C                     PIR1            equ	12	;# 
   224     000D                     PIR2            equ	13	;# 
   225     000E                     TMR1            equ	14	;# 
   226     000E                     TMR1L           equ	14	;# 
   227     000F                     TMR1H           equ	15	;# 
   228     0010                     T1CON           equ	16	;# 
   229     0011                     TMR2            equ	17	;# 
   230     0012                     T2CON           equ	18	;# 
   231     0013                     SSPBUF          equ	19	;# 
   232     0014                     SSPCON          equ	20	;# 
   233     0015                     CCPR1           equ	21	;# 
   234     0015                     CCPR1L          equ	21	;# 
   235     0016                     CCPR1H          equ	22	;# 
   236     0017                     CCP1CON         equ	23	;# 
   237     0018                     RCSTA           equ	24	;# 
   238     0019                     TXREG           equ	25	;# 
   239     001A                     RCREG           equ	26	;# 
   240     001B                     CCPR2           equ	27	;# 
   241     001B                     CCPR2L          equ	27	;# 
   242     001C                     CCPR2H          equ	28	;# 
   243     001D                     CCP2CON         equ	29	;# 
   244     001E                     ADRESH          equ	30	;# 
   245     001F                     ADCON0          equ	31	;# 
   246     0081                     OPTION_REG      equ	129	;# 
   247     0085                     TRISA           equ	133	;# 
   248     0086                     TRISB           equ	134	;# 
   249     0087                     TRISC           equ	135	;# 
   250     0088                     TRISD           equ	136	;# 
   251     0089                     TRISE           equ	137	;# 
   252     008C                     PIE1            equ	140	;# 
   253     008D                     PIE2            equ	141	;# 
   254     008E                     PCON            equ	142	;# 
   255     0091                     SSPCON2         equ	145	;# 
   256     0092                     PR2             equ	146	;# 
   257     0093                     SSPADD          equ	147	;# 
   258     0094                     SSPSTAT         equ	148	;# 
   259     0098                     TXSTA           equ	152	;# 
   260     0099                     SPBRG           equ	153	;# 
   261     009C                     CMCON           equ	156	;# 
   262     009D                     CVRCON          equ	157	;# 
   263     009E                     ADRESL          equ	158	;# 
   264     009F                     ADCON1          equ	159	;# 
   265     010C                     EEDATA          equ	268	;# 
   266     010D                     EEADR           equ	269	;# 
   267     010E                     EEDATH          equ	270	;# 
   268     010F                     EEADRH          equ	271	;# 
   269     018C                     EECON1          equ	396	;# 
   270     018D                     EECON2          equ	397	;# 
   271     0000                     INDF            equ	0	;# 
   272     0001                     TMR0            equ	1	;# 
   273     0002                     PCL             equ	2	;# 
   274     0003                     STATUS          equ	3	;# 
   275     0004                     FSR             equ	4	;# 
   276     0005                     PORTA           equ	5	;# 
   277     0006                     PORTB           equ	6	;# 
   278     0007                     PORTC           equ	7	;# 
   279     0008                     PORTD           equ	8	;# 
   280     0009                     PORTE           equ	9	;# 
   281     000A                     PCLATH          equ	10	;# 
   282     000B                     INTCON          equ	11	;# 
   283     000C                     PIR1            equ	12	;# 
   284     000D                     PIR2            equ	13	;# 
   285     000E                     TMR1            equ	14	;# 
   286     000E                     TMR1L           equ	14	;# 
   287     000F                     TMR1H           equ	15	;# 
   288     0010                     T1CON           equ	16	;# 
   289     0011                     TMR2            equ	17	;# 
   290     0012                     T2CON           equ	18	;# 
   291     0013                     SSPBUF          equ	19	;# 
   292     0014                     SSPCON          equ	20	;# 
   293     0015                     CCPR1           equ	21	;# 
   294     0015                     CCPR1L          equ	21	;# 
   295     0016                     CCPR1H          equ	22	;# 
   296     0017                     CCP1CON         equ	23	;# 
   297     0018                     RCSTA           equ	24	;# 
   298     0019                     TXREG           equ	25	;# 
   299     001A                     RCREG           equ	26	;# 
   300     001B                     CCPR2           equ	27	;# 
   301     001B                     CCPR2L          equ	27	;# 
   302     001C                     CCPR2H          equ	28	;# 
   303     001D                     CCP2CON         equ	29	;# 
   304     001E                     ADRESH          equ	30	;# 
   305     001F                     ADCON0          equ	31	;# 
   306     0081                     OPTION_REG      equ	129	;# 
   307     0085                     TRISA           equ	133	;# 
   308     0086                     TRISB           equ	134	;# 
   309     0087                     TRISC           equ	135	;# 
   310     0088                     TRISD           equ	136	;# 
   311     0089                     TRISE           equ	137	;# 
   312     008C                     PIE1            equ	140	;# 
   313     008D                     PIE2            equ	141	;# 
   314     008E                     PCON            equ	142	;# 
   315     0091                     SSPCON2         equ	145	;# 
   316     0092                     PR2             equ	146	;# 
   317     0093                     SSPADD          equ	147	;# 
   318     0094                     SSPSTAT         equ	148	;# 
   319     0098                     TXSTA           equ	152	;# 
   320     0099                     SPBRG           equ	153	;# 
   321     009C                     CMCON           equ	156	;# 
   322     009D                     CVRCON          equ	157	;# 
   323     009E                     ADRESL          equ	158	;# 
   324     009F                     ADCON1          equ	159	;# 
   325     010C                     EEDATA          equ	268	;# 
   326     010D                     EEADR           equ	269	;# 
   327     010E                     EEDATH          equ	270	;# 
   328     010F                     EEADRH          equ	271	;# 
   329     018C                     EECON1          equ	396	;# 
   330     018D                     EECON2          equ	397	;# 
   331     0000                     INDF            equ	0	;# 
   332     0001                     TMR0            equ	1	;# 
   333     0002                     PCL             equ	2	;# 
   334     0003                     STATUS          equ	3	;# 
   335     0004                     FSR             equ	4	;# 
   336     0005                     PORTA           equ	5	;# 
   337     0006                     PORTB           equ	6	;# 
   338     0007                     PORTC           equ	7	;# 
   339     0008                     PORTD           equ	8	;# 
   340     0009                     PORTE           equ	9	;# 
   341     000A                     PCLATH          equ	10	;# 
   342     000B                     INTCON          equ	11	;# 
   343     000C                     PIR1            equ	12	;# 
   344     000D                     PIR2            equ	13	;# 
   345     000E                     TMR1            equ	14	;# 
   346     000E                     TMR1L           equ	14	;# 
   347     000F                     TMR1H           equ	15	;# 
   348     0010                     T1CON           equ	16	;# 
   349     0011                     TMR2            equ	17	;# 
   350     0012                     T2CON           equ	18	;# 
   351     0013                     SSPBUF          equ	19	;# 
   352     0014                     SSPCON          equ	20	;# 
   353     0015                     CCPR1           equ	21	;# 
   354     0015                     CCPR1L          equ	21	;# 
   355     0016                     CCPR1H          equ	22	;# 
   356     0017                     CCP1CON         equ	23	;# 
   357     0018                     RCSTA           equ	24	;# 
   358     0019                     TXREG           equ	25	;# 
   359     001A                     RCREG           equ	26	;# 
   360     001B                     CCPR2           equ	27	;# 
   361     001B                     CCPR2L          equ	27	;# 
   362     001C                     CCPR2H          equ	28	;# 
   363     001D                     CCP2CON         equ	29	;# 
   364     001E                     ADRESH          equ	30	;# 
   365     001F                     ADCON0          equ	31	;# 
   366     0081                     OPTION_REG      equ	129	;# 
   367     0085                     TRISA           equ	133	;# 
   368     0086                     TRISB           equ	134	;# 
   369     0087                     TRISC           equ	135	;# 
   370     0088                     TRISD           equ	136	;# 
   371     0089                     TRISE           equ	137	;# 
   372     008C                     PIE1            equ	140	;# 
   373     008D                     PIE2            equ	141	;# 
   374     008E                     PCON            equ	142	;# 
   375     0091                     SSPCON2         equ	145	;# 
   376     0092                     PR2             equ	146	;# 
   377     0093                     SSPADD          equ	147	;# 
   378     0094                     SSPSTAT         equ	148	;# 
   379     0098                     TXSTA           equ	152	;# 
   380     0099                     SPBRG           equ	153	;# 
   381     009C                     CMCON           equ	156	;# 
   382     009D                     CVRCON          equ	157	;# 
   383     009E                     ADRESL          equ	158	;# 
   384     009F                     ADCON1          equ	159	;# 
   385     010C                     EEDATA          equ	268	;# 
   386     010D                     EEADR           equ	269	;# 
   387     010E                     EEDATH          equ	270	;# 
   388     010F                     EEADRH          equ	271	;# 
   389     018C                     EECON1          equ	396	;# 
   390     018D                     EECON2          equ	397	;# 
   391     0000                     INDF            equ	0	;# 
   392     0001                     TMR0            equ	1	;# 
   393     0002                     PCL             equ	2	;# 
   394     0003                     STATUS          equ	3	;# 
   395     0004                     FSR             equ	4	;# 
   396     0005                     PORTA           equ	5	;# 
   397     0006                     PORTB           equ	6	;# 
   398     0007                     PORTC           equ	7	;# 
   399     0008                     PORTD           equ	8	;# 
   400     0009                     PORTE           equ	9	;# 
   401     000A                     PCLATH          equ	10	;# 
   402     000B                     INTCON          equ	11	;# 
   403     000C                     PIR1            equ	12	;# 
   404     000D                     PIR2            equ	13	;# 
   405     000E                     TMR1            equ	14	;# 
   406     000E                     TMR1L           equ	14	;# 
   407     000F                     TMR1H           equ	15	;# 
   408     0010                     T1CON           equ	16	;# 
   409     0011                     TMR2            equ	17	;# 
   410     0012                     T2CON           equ	18	;# 
   411     0013                     SSPBUF          equ	19	;# 
   412     0014                     SSPCON          equ	20	;# 
   413     0015                     CCPR1           equ	21	;# 
   414     0015                     CCPR1L          equ	21	;# 
   415     0016                     CCPR1H          equ	22	;# 
   416     0017                     CCP1CON         equ	23	;# 
   417     0018                     RCSTA           equ	24	;# 
   418     0019                     TXREG           equ	25	;# 
   419     001A                     RCREG           equ	26	;# 
   420     001B                     CCPR2           equ	27	;# 
   421     001B                     CCPR2L          equ	27	;# 
   422     001C                     CCPR2H          equ	28	;# 
   423     001D                     CCP2CON         equ	29	;# 
   424     001E                     ADRESH          equ	30	;# 
   425     001F                     ADCON0          equ	31	;# 
   426     0081                     OPTION_REG      equ	129	;# 
   427     0085                     TRISA           equ	133	;# 
   428     0086                     TRISB           equ	134	;# 
   429     0087                     TRISC           equ	135	;# 
   430     0088                     TRISD           equ	136	;# 
   431     0089                     TRISE           equ	137	;# 
   432     008C                     PIE1            equ	140	;# 
   433     008D                     PIE2            equ	141	;# 
   434     008E                     PCON            equ	142	;# 
   435     0091                     SSPCON2         equ	145	;# 
   436     0092                     PR2             equ	146	;# 
   437     0093                     SSPADD          equ	147	;# 
   438     0094                     SSPSTAT         equ	148	;# 
   439     0098                     TXSTA           equ	152	;# 
   440     0099                     SPBRG           equ	153	;# 
   441     009C                     CMCON           equ	156	;# 
   442     009D                     CVRCON          equ	157	;# 
   443     009E                     ADRESL          equ	158	;# 
   444     009F                     ADCON1          equ	159	;# 
   445     010C                     EEDATA          equ	268	;# 
   446     010D                     EEADR           equ	269	;# 
   447     010E                     EEDATH          equ	270	;# 
   448     010F                     EEADRH          equ	271	;# 
   449     018C                     EECON1          equ	396	;# 
   450     018D                     EECON2          equ	397	;# 
   451     0000                     INDF            equ	0	;# 
   452     0001                     TMR0            equ	1	;# 
   453     0002                     PCL             equ	2	;# 
   454     0003                     STATUS          equ	3	;# 
   455     0004                     FSR             equ	4	;# 
   456     0005                     PORTA           equ	5	;# 
   457     0006                     PORTB           equ	6	;# 
   458     0007                     PORTC           equ	7	;# 
   459     0008                     PORTD           equ	8	;# 
   460     0009                     PORTE           equ	9	;# 
   461     000A                     PCLATH          equ	10	;# 
   462     000B                     INTCON          equ	11	;# 
   463     000C                     PIR1            equ	12	;# 
   464     000D                     PIR2            equ	13	;# 
   465     000E                     TMR1            equ	14	;# 
   466     000E                     TMR1L           equ	14	;# 
   467     000F                     TMR1H           equ	15	;# 
   468     0010                     T1CON           equ	16	;# 
   469     0011                     TMR2            equ	17	;# 
   470     0012                     T2CON           equ	18	;# 
   471     0013                     SSPBUF          equ	19	;# 
   472     0014                     SSPCON          equ	20	;# 
   473     0015                     CCPR1           equ	21	;# 
   474     0015                     CCPR1L          equ	21	;# 
   475     0016                     CCPR1H          equ	22	;# 
   476     0017                     CCP1CON         equ	23	;# 
   477     0018                     RCSTA           equ	24	;# 
   478     0019                     TXREG           equ	25	;# 
   479     001A                     RCREG           equ	26	;# 
   480     001B                     CCPR2           equ	27	;# 
   481     001B                     CCPR2L          equ	27	;# 
   482     001C                     CCPR2H          equ	28	;# 
   483     001D                     CCP2CON         equ	29	;# 
   484     001E                     ADRESH          equ	30	;# 
   485     001F                     ADCON0          equ	31	;# 
   486     0081                     OPTION_REG      equ	129	;# 
   487     0085                     TRISA           equ	133	;# 
   488     0086                     TRISB           equ	134	;# 
   489     0087                     TRISC           equ	135	;# 
   490     0088                     TRISD           equ	136	;# 
   491     0089                     TRISE           equ	137	;# 
   492     008C                     PIE1            equ	140	;# 
   493     008D                     PIE2            equ	141	;# 
   494     008E                     PCON            equ	142	;# 
   495     0091                     SSPCON2         equ	145	;# 
   496     0092                     PR2             equ	146	;# 
   497     0093                     SSPADD          equ	147	;# 
   498     0094                     SSPSTAT         equ	148	;# 
   499     0098                     TXSTA           equ	152	;# 
   500     0099                     SPBRG           equ	153	;# 
   501     009C                     CMCON           equ	156	;# 
   502     009D                     CVRCON          equ	157	;# 
   503     009E                     ADRESL          equ	158	;# 
   504     009F                     ADCON1          equ	159	;# 
   505     010C                     EEDATA          equ	268	;# 
   506     010D                     EEADR           equ	269	;# 
   507     010E                     EEDATH          equ	270	;# 
   508     010F                     EEADRH          equ	271	;# 
   509     018C                     EECON1          equ	396	;# 
   510     018D                     EECON2          equ	397	;# 
   511                           
   512                           	psect	idataCOMMON
   513     141A                     __pidataCOMMON:
   514                           
   515                           ;initializer for _operational_state
   516     141A  3401               	retlw	1
   517     141B  3400               	retlw	0
   518                           
   519                           ;initializer for read_digital_keypad@once
   520     141C  3401               	retlw	1
   521                           
   522                           	psect	idataBANK1
   523     07DA                     __pidataBANK1:
   524                           
   525                           ;initializer for _washing_program
   526     07DA  3448               	retlw	low (STR_7| (0+32768))
   527     07DB  3491               	retlw	high (STR_7| (0+32768))
   528     07DC  344E               	retlw	low (STR_8| (0+32768))
   529     07DD  3491               	retlw	high (STR_8| (0+32768))
   530     07DE  34E0               	retlw	low (STR_9| (0+32768))
   531     07DF  3490               	retlw	high (STR_9| (0+32768))
   532     07E0  3429               	retlw	low (STR_10| (0+32768))
   533     07E1  3491               	retlw	high (STR_10| (0+32768))
   534     07E2  34BF               	retlw	low (STR_11| (0+32768))
   535     07E3  3490               	retlw	high (STR_11| (0+32768))
   536     07E4  3492               	retlw	low (STR_12| (0+32768))
   537     07E5  3490               	retlw	high (STR_12| (0+32768))
   538     07E6  341A               	retlw	low (STR_13| (0+32768))
   539     07E7  3491               	retlw	high (STR_13| (0+32768))
   540     07E8  34CA               	retlw	low (STR_14| (0+32768))
   541     07E9  3490               	retlw	high (STR_14| (0+32768))
   542     07EA  34F4               	retlw	low (STR_15| (0+32768))
   543     07EB  3490               	retlw	high (STR_15| (0+32768))
   544     07EC  3408               	retlw	low (STR_16| (0+32768))
   545     07ED  3491               	retlw	high (STR_16| (0+32768))
   546     07EE  34EA               	retlw	low (STR_17| (0+32768))
   547     07EF  3490               	retlw	high (STR_17| (0+32768))
   548     07F0  34B4               	retlw	low (STR_18| (0+32768))
   549     07F1  3490               	retlw	high (STR_18| (0+32768))
   550                           
   551                           ;initializer for _water_level_options
   552     07F2  3459               	retlw	low (STR_19| (0+32768))
   553     07F3  3491               	retlw	high (STR_19| (0+32768))
   554     07F4  3463               	retlw	low (STR_20| (0+32768))
   555     07F5  3491               	retlw	high (STR_20| (0+32768))
   556     07F6  3422               	retlw	low (STR_21| (0+32768))
   557     07F7  3491               	retlw	high (STR_21| (0+32768))
   558     07F8  3454               	retlw	low (STR_22| (0+32768))
   559     07F9  3491               	retlw	high (STR_22| (0+32768))
   560     07FA  3467               	retlw	low (STR_23| (0+32768))
   561     07FB  3491               	retlw	high (STR_23| (0+32768))
   562                           
   563                           ;initializer for _reset_flag
   564     07FC  3411               	retlw	17
   565     07FD  3400               	retlw	0
   566                           
   567                           ;initializer for read_digital_keypad@longpressed
   568     07FE  3401               	retlw	1
   569     07FF  3400               	retlw	0
   570     0006                     _PORTB          set	6
   571     0008                     _PORTD          set	8
   572     0030                     _RB0            set	48
   573     0092                     _TMR2ON         set	146
   574     0039                     _RC1            set	57
   575     003A                     _RC2            set	58
   576     005E                     _PEIE           set	94
   577     005F                     _GIE            set	95
   578     0061                     _TMR2IF         set	97
   579     0049                     _RE1            set	73
   580     004A                     _RE2            set	74
   581     0092                     _PR2            set	146
   582     0086                     _TRISB          set	134
   583     0088                     _TRISD          set	136
   584     0461                     _TMR2IE         set	1121
   585     043A                     _TRISC2         set	1082
   586     0439                     _TRISC1         set	1081
   587     0449                     _TRISE1         set	1097
   588     044A                     _TRISE2         set	1098
   589                           
   590                           	psect	strings
   591     116B                     __pstrings:
   592     116B                     stringtab:
   593     116B                     __stringtab:
   594                           
   595                           ;	String table - string pointers are 2 bytes each
   596     116B  1BFF               	btfsc	btemp+1,7
   597     116C  2975               	ljmp	stringcode
   598     116D  1383               	bcf	3,7
   599     116E  187F               	btfsc	btemp+1,0
   600     116F  1783               	bsf	3,7
   601     1170  0800               	movf	0,w
   602     1171  0A84               	incf	4,f
   603     1172  1903               	skipnz
   604     1173  0AFF               	incf	btemp+1,f
   605     1174  0008               	return
   606     1175                     stringcode:
   607     1175  087F               	movf	btemp+1,w
   608     1176  397F               	andlw	127
   609     1177  008A               	movwf	10
   610     1178  0804               	movf	4,w
   611     1179  0A84               	incf	4,f
   612     117A  1903               	skipnz
   613     117B  0AFF               	incf	btemp+1,f
   614     117C  0082               	movwf	2
   615     117D                     __stringbase:
   616     117D                     __end_of__stringtab:
   617                           
   618                           	psect	stringtext
   619     1000                     __pstringtext:
   620     1000                     STR_44:
   621     1000  3450               	retlw	80	;'P'
   622     1001  346C               	retlw	108	;'l'
   623     1002  3465               	retlw	101	;'e'
   624     1003  3461               	retlw	97	;'a'
   625     1004  3473               	retlw	115	;'s'
   626     1005  3465               	retlw	101	;'e'
   627     1006  3420               	retlw	32	;' '
   628     1007  3463               	retlw	99	;'c'
   629     1008  346C               	retlw	108	;'l'
   630     1009  346F               	retlw	111	;'o'
   631     100A  3473               	retlw	115	;'s'
   632     100B  3465               	retlw	101	;'e'
   633     100C  3420               	retlw	32	;' '
   634     100D  3464               	retlw	100	;'d'
   635     100E  346F               	retlw	111	;'o'
   636     100F  346F               	retlw	111	;'o'
   637     1010  3472               	retlw	114	;'r'
   638     1011  3400               	retlw	0
   639     1012                     STR_41:
   640     1012  3450               	retlw	80	;'P'
   641     1013  3472               	retlw	114	;'r'
   642     1014  346F               	retlw	111	;'o'
   643     1015  3467               	retlw	103	;'g'
   644     1016  3472               	retlw	114	;'r'
   645     1017  3461               	retlw	97	;'a'
   646     1018  346D               	retlw	109	;'m'
   647     1019  3420               	retlw	32	;' '
   648     101A  3463               	retlw	99	;'c'
   649     101B  346F               	retlw	111	;'o'
   650     101C  346D               	retlw	109	;'m'
   651     101D  3470               	retlw	112	;'p'
   652     101E  346C               	retlw	108	;'l'
   653     101F  3465               	retlw	101	;'e'
   654     1020  3474               	retlw	116	;'t'
   655     1021  3465               	retlw	101	;'e'
   656     1022  3400               	retlw	0
   657     1023                     STR_26:
   658     1023  3477               	retlw	119	;'w'
   659     1024  3461               	retlw	97	;'a'
   660     1025  3473               	retlw	115	;'s'
   661     1026  3468               	retlw	104	;'h'
   662     1027  3469               	retlw	105	;'i'
   663     1028  346E               	retlw	110	;'n'
   664     1029  3467               	retlw	103	;'g'
   665     102A  3420               	retlw	32	;' '
   666     102B  3470               	retlw	112	;'p'
   667     102C  3472               	retlw	114	;'r'
   668     102D  346F               	retlw	111	;'o'
   669     102E  3467               	retlw	103	;'g'
   670     102F  3472               	retlw	114	;'r'
   671     1030  3461               	retlw	97	;'a'
   672     1031  346D               	retlw	109	;'m'
   673     1032  3400               	retlw	0
   674     1033                     STR_3:
   675     1033  3457               	retlw	87	;'W'
   676     1034  3461               	retlw	97	;'a'
   677     1035  3473               	retlw	115	;'s'
   678     1036  3468               	retlw	104	;'h'
   679     1037  3469               	retlw	105	;'i'
   680     1038  346E               	retlw	110	;'n'
   681     1039  3467               	retlw	103	;'g'
   682     103A  3420               	retlw	32	;' '
   683     103B  344D               	retlw	77	;'M'
   684     103C  3461               	retlw	97	;'a'
   685     103D  3463               	retlw	99	;'c'
   686     103E  3468               	retlw	104	;'h'
   687     103F  3469               	retlw	105	;'i'
   688     1040  346E               	retlw	110	;'n'
   689     1041  3465               	retlw	101	;'e'
   690     1042  3400               	retlw	0
   691     1043                     STR_1:
   692     1043  3450               	retlw	80	;'P'
   693     1044  3472               	retlw	114	;'r'
   694     1045  3465               	retlw	101	;'e'
   695     1046  3473               	retlw	115	;'s'
   696     1047  3473               	retlw	115	;'s'
   697     1048  3420               	retlw	32	;' '
   698     1049  346B               	retlw	107	;'k'
   699     104A  3465               	retlw	101	;'e'
   700     104B  3479               	retlw	121	;'y'
   701     104C  3420               	retlw	32	;' '
   702     104D  3435               	retlw	53	;'5'
   703     104E  3420               	retlw	32	;' '
   704     104F  3474               	retlw	116	;'t'
   705     1050  346F               	retlw	111	;'o'
   706     1051  3400               	retlw	0
   707     1052                     STR_42:
   708     1052  3452               	retlw	82	;'R'
   709     1053  3465               	retlw	101	;'e'
   710     1054  346D               	retlw	109	;'m'
   711     1055  346F               	retlw	111	;'o'
   712     1056  3476               	retlw	118	;'v'
   713     1057  3465               	retlw	101	;'e'
   714     1058  3420               	retlw	32	;' '
   715     1059  3463               	retlw	99	;'c'
   716     105A  346C               	retlw	108	;'l'
   717     105B  346F               	retlw	111	;'o'
   718     105C  3474               	retlw	116	;'t'
   719     105D  3468               	retlw	104	;'h'
   720     105E  3473               	retlw	115	;'s'
   721     105F  3400               	retlw	0
   722     1060                     STR_43:
   723     1060  3444               	retlw	68	;'D'
   724     1061  344F               	retlw	79	;'O'
   725     1062  344F               	retlw	79	;'O'
   726     1063  3452               	retlw	82	;'R'
   727     1064  3420               	retlw	32	;' '
   728     1065  3449               	retlw	73	;'I'
   729     1066  3453               	retlw	83	;'S'
   730     1067  3420               	retlw	32	;' '
   731     1068  344F               	retlw	79	;'O'
   732     1069  3450               	retlw	80	;'P'
   733     106A  3445               	retlw	69	;'E'
   734     106B  344E               	retlw	78	;'N'
   735     106C  3400               	retlw	0
   736     106D                     STR_4:
   737     106D  3470               	retlw	112	;'p'
   738     106E  3472               	retlw	114	;'r'
   739     106F  3465               	retlw	101	;'e'
   740     1070  3473               	retlw	115	;'s'
   741     1071  3473               	retlw	115	;'s'
   742     1072  3420               	retlw	32	;' '
   743     1073  3473               	retlw	115	;'s'
   744     1074  3477               	retlw	119	;'w'
   745     1075  3469               	retlw	105	;'i'
   746     1076  3474               	retlw	116	;'t'
   747     1077  3463               	retlw	99	;'c'
   748     1078  3468               	retlw	104	;'h'
   749     1079  3400               	retlw	0
   750     107A                     STR_27:
   751     107A  3457               	retlw	87	;'W'
   752     107B  3441               	retlw	65	;'A'
   753     107C  3454               	retlw	84	;'T'
   754     107D  3445               	retlw	69	;'E'
   755     107E  3452               	retlw	82	;'R'
   756     107F  3420               	retlw	32	;' '
   757     1080  344C               	retlw	76	;'L'
   758     1081  3445               	retlw	69	;'E'
   759     1082  3456               	retlw	86	;'V'
   760     1083  3445               	retlw	69	;'E'
   761     1084  344C               	retlw	76	;'L'
   762     1085  3400               	retlw	0
   763     1086                     STR_24:
   764     1086  3450               	retlw	80	;'P'
   765     1087  346F               	retlw	111	;'o'
   766     1088  3477               	retlw	119	;'w'
   767     1089  3465               	retlw	101	;'e'
   768     108A  3472               	retlw	114	;'r'
   769     108B  3469               	retlw	105	;'i'
   770     108C  346E               	retlw	110	;'n'
   771     108D  3467               	retlw	103	;'g'
   772     108E  3420               	retlw	32	;' '
   773     108F  344F               	retlw	79	;'O'
   774     1090  344E               	retlw	78	;'N'
   775     1091  3400               	retlw	0
   776     1092                     STR_12:
   777     1092  3445               	retlw	69	;'E'
   778     1093  3463               	retlw	99	;'c'
   779     1094  346F               	retlw	111	;'o'
   780     1095  3420               	retlw	32	;' '
   781     1096  3463               	retlw	99	;'c'
   782     1097  346F               	retlw	111	;'o'
   783     1098  3474               	retlw	116	;'t'
   784     1099  3474               	retlw	116	;'t'
   785     109A  346F               	retlw	111	;'o'
   786     109B  346E               	retlw	110	;'n'
   787     109C  3473               	retlw	115	;'s'
   788     109D  3400               	retlw	0
   789     109E                     STR_30:
   790     109E  3446               	retlw	70	;'F'
   791     109F  3455               	retlw	85	;'U'
   792     10A0  344E               	retlw	78	;'N'
   793     10A1  3443               	retlw	67	;'C'
   794     10A2  3454               	retlw	84	;'T'
   795     10A3  3449               	retlw	73	;'I'
   796     10A4  344F               	retlw	79	;'O'
   797     10A5  344E               	retlw	78	;'N'
   798     10A6  343A               	retlw	58	;':'
   799     10A7  3420               	retlw	32	;' '
   800     10A8  3400               	retlw	0
   801     10A9                     STR_33:
   802     10A9  3453               	retlw	83	;'S'
   803     10AA  3457               	retlw	87	;'W'
   804     10AB  3436               	retlw	54	;'6'
   805     10AC  343A               	retlw	58	;':'
   806     10AD  3420               	retlw	32	;' '
   807     10AE  3450               	retlw	80	;'P'
   808     10AF  3441               	retlw	65	;'A'
   809     10B0  3455               	retlw	85	;'U'
   810     10B1  3453               	retlw	83	;'S'
   811     10B2  3445               	retlw	69	;'E'
   812     10B3  3400               	retlw	0
   813     10B4                     STR_18:
   814     10B4  3441               	retlw	65	;'A'
   815     10B5  3471               	retlw	113	;'q'
   816     10B6  3475               	retlw	117	;'u'
   817     10B7  3461               	retlw	97	;'a'
   818     10B8  3420               	retlw	32	;' '
   819     10B9  3473               	retlw	115	;'s'
   820     10BA  3474               	retlw	116	;'t'
   821     10BB  346F               	retlw	111	;'o'
   822     10BC  3472               	retlw	114	;'r'
   823     10BD  3465               	retlw	101	;'e'
   824     10BE  3400               	retlw	0
   825     10BF                     STR_11:
   826     10BF  3453               	retlw	83	;'S'
   827     10C0  3474               	retlw	116	;'t'
   828     10C1  3461               	retlw	97	;'a'
   829     10C2  3469               	retlw	105	;'i'
   830     10C3  346E               	retlw	110	;'n'
   831     10C4  3420               	retlw	32	;' '
   832     10C5  3477               	retlw	119	;'w'
   833     10C6  3461               	retlw	97	;'a'
   834     10C7  3473               	retlw	115	;'s'
   835     10C8  3468               	retlw	104	;'h'
   836     10C9  3400               	retlw	0
   837     10CA                     STR_14:
   838     10CA  3442               	retlw	66	;'B'
   839     10CB  3465               	retlw	101	;'e'
   840     10CC  3464               	retlw	100	;'d'
   841     10CD  3420               	retlw	32	;' '
   842     10CE  3473               	retlw	115	;'s'
   843     10CF  3468               	retlw	104	;'h'
   844     10D0  3465               	retlw	101	;'e'
   845     10D1  3465               	retlw	101	;'e'
   846     10D2  3474               	retlw	116	;'t'
   847     10D3  3473               	retlw	115	;'s'
   848     10D4  3400               	retlw	0
   849     10D5                     STR_5:
   850     10D5  3453               	retlw	83	;'S'
   851     10D6  3457               	retlw	87	;'W'
   852     10D7  3435               	retlw	53	;'5'
   853     10D8  343A               	retlw	58	;':'
   854     10D9  3420               	retlw	32	;' '
   855     10DA  3453               	retlw	83	;'S'
   856     10DB  3454               	retlw	84	;'T'
   857     10DC  3441               	retlw	65	;'A'
   858     10DD  3452               	retlw	82	;'R'
   859     10DE  3454               	retlw	84	;'T'
   860     10DF  3400               	retlw	0
   861     10E0                     STR_9:
   862     10E0  3444               	retlw	68	;'D'
   863     10E1  3465               	retlw	101	;'e'
   864     10E2  3464               	retlw	100	;'d'
   865     10E3  3469               	retlw	105	;'i'
   866     10E4  3463               	retlw	99	;'c'
   867     10E5  3461               	retlw	97	;'a'
   868     10E6  3474               	retlw	116	;'t'
   869     10E7  3465               	retlw	101	;'e'
   870     10E8  3473               	retlw	115	;'s'
   871     10E9  3400               	retlw	0
   872     10EA                     STR_17:
   873     10EA  3457               	retlw	87	;'W'
   874     10EB  3461               	retlw	97	;'a'
   875     10EC  3473               	retlw	115	;'s'
   876     10ED  3468               	retlw	104	;'h'
   877     10EE  3420               	retlw	32	;' '
   878     10EF  346F               	retlw	111	;'o'
   879     10F0  346E               	retlw	110	;'n'
   880     10F1  346C               	retlw	108	;'l'
   881     10F2  3479               	retlw	121	;'y'
   882     10F3  3400               	retlw	0
   883     10F4                     STR_15:
   884     10F4  3452               	retlw	82	;'R'
   885     10F5  3469               	retlw	105	;'i'
   886     10F6  346E               	retlw	110	;'n'
   887     10F7  3473               	retlw	115	;'s'
   888     10F8  3465               	retlw	101	;'e'
   889     10F9  342B               	retlw	43	;'+'
   890     10FA  3444               	retlw	68	;'D'
   891     10FB  3472               	retlw	114	;'r'
   892     10FC  3479               	retlw	121	;'y'
   893     10FD  3400               	retlw	0
   894     10FE                     STR_6:
   895     10FE  3453               	retlw	83	;'S'
   896     10FF  3457               	retlw	87	;'W'
   897     1100  3436               	retlw	54	;'6'
   898     1101  343A               	retlw	58	;':'
   899     1102  3420               	retlw	32	;' '
   900     1103  3453               	retlw	83	;'S'
   901     1104  3454               	retlw	84	;'T'
   902     1105  344F               	retlw	79	;'O'
   903     1106  3450               	retlw	80	;'P'
   904     1107  3400               	retlw	0
   905     1108                     STR_16:
   906     1108  3444               	retlw	68	;'D'
   907     1109  3472               	retlw	114	;'r'
   908     110A  3479               	retlw	121	;'y'
   909     110B  3420               	retlw	32	;' '
   910     110C  346F               	retlw	111	;'o'
   911     110D  346E               	retlw	110	;'n'
   912     110E  346C               	retlw	108	;'l'
   913     110F  3479               	retlw	121	;'y'
   914     1110  3400               	retlw	0
   915     1111                     STR_2:
   916     1111  3450               	retlw	80	;'P'
   917     1112  346F               	retlw	111	;'o'
   918     1113  3477               	retlw	119	;'w'
   919     1114  3465               	retlw	101	;'e'
   920     1115  3472               	retlw	114	;'r'
   921     1116  3420               	retlw	32	;' '
   922     1117  344F               	retlw	79	;'O'
   923     1118  344E               	retlw	78	;'N'
   924     1119  3400               	retlw	0
   925     111A                     STR_13:
   926     111A  3457               	retlw	87	;'W'
   927     111B  346F               	retlw	111	;'o'
   928     111C  346F               	retlw	111	;'o'
   929     111D  346C               	retlw	108	;'l'
   930     111E  3465               	retlw	101	;'e'
   931     111F  346E               	retlw	110	;'n'
   932     1120  3473               	retlw	115	;'s'
   933     1121  3400               	retlw	0
   934     1122                     STR_21:
   935     1122  344D               	retlw	77	;'M'
   936     1123  3445               	retlw	69	;'E'
   937     1124  3444               	retlw	68	;'D'
   938     1125  3449               	retlw	73	;'I'
   939     1126  3455               	retlw	85	;'U'
   940     1127  344D               	retlw	77	;'M'
   941     1128  3400               	retlw	0
   942     1129                     STR_10:
   943     1129  3457               	retlw	87	;'W'
   944     112A  3468               	retlw	104	;'h'
   945     112B  3469               	retlw	105	;'i'
   946     112C  3474               	retlw	116	;'t'
   947     112D  3465               	retlw	101	;'e'
   948     112E  3473               	retlw	115	;'s'
   949     112F  3400               	retlw	0
   950     1130                     STR_36:
   951     1130  3473               	retlw	115	;'s'
   952     1131  3470               	retlw	112	;'p'
   953     1132  3469               	retlw	105	;'i'
   954     1133  346E               	retlw	110	;'n'
   955     1134  3420               	retlw	32	;' '
   956     1135  3400               	retlw	0
   957     1136                     STR_29:
   958     1136  3454               	retlw	84	;'T'
   959     1137  3449               	retlw	73	;'I'
   960     1138  344D               	retlw	77	;'M'
   961     1139  3445               	retlw	69	;'E'
   962     113A  343A               	retlw	58	;':'
   963     113B  3400               	retlw	0
   964     113C                     STR_28:
   965     113C  3450               	retlw	80	;'P'
   966     113D  3472               	retlw	114	;'r'
   967     113E  346F               	retlw	111	;'o'
   968     113F  3467               	retlw	103	;'g'
   969     1140  343A               	retlw	58	;':'
   970     1141  3400               	retlw	0
   971     1142                     STR_35:
   972     1142  3472               	retlw	114	;'r'
   973     1143  3469               	retlw	105	;'i'
   974     1144  346E               	retlw	110	;'n'
   975     1145  3473               	retlw	115	;'s'
   976     1146  3465               	retlw	101	;'e'
   977     1147  3400               	retlw	0
   978     1148                     STR_7:
   979     1148  3444               	retlw	68	;'D'
   980     1149  3461               	retlw	97	;'a'
   981     114A  3469               	retlw	105	;'i'
   982     114B  346C               	retlw	108	;'l'
   983     114C  3479               	retlw	121	;'y'
   984     114D  3400               	retlw	0
   985     114E                     STR_8:
   986     114E  3448               	retlw	72	;'H'
   987     114F  3465               	retlw	101	;'e'
   988     1150  3461               	retlw	97	;'a'
   989     1151  3476               	retlw	118	;'v'
   990     1152  3479               	retlw	121	;'y'
   991     1153  3400               	retlw	0
   992     1154                     STR_22:
   993     1154  3448               	retlw	72	;'H'
   994     1155  3449               	retlw	73	;'I'
   995     1156  3447               	retlw	71	;'G'
   996     1157  3448               	retlw	72	;'H'
   997     1158  3400               	retlw	0
   998     1159                     STR_19:
   999     1159  3441               	retlw	65	;'A'
  1000     115A  3455               	retlw	85	;'U'
  1001     115B  3454               	retlw	84	;'T'
  1002     115C  344F               	retlw	79	;'O'
  1003     115D  3400               	retlw	0
  1004     115E                     STR_31:
  1005     115E  3454               	retlw	84	;'T'
  1006     115F  3469               	retlw	105	;'i'
  1007     1160  346D               	retlw	109	;'m'
  1008     1161  3465               	retlw	101	;'e'
  1009     1162  3400               	retlw	0
  1010     1163                     STR_20:
  1011     1163  344C               	retlw	76	;'L'
  1012     1164  344F               	retlw	79	;'O'
  1013     1165  3457               	retlw	87	;'W'
  1014     1166  3400               	retlw	0
  1015     1167                     STR_23:
  1016     1167  344D               	retlw	77	;'M'
  1017     1168  3441               	retlw	65	;'A'
  1018     1169  3458               	retlw	88	;'X'
  1019     116A  3400               	retlw	0
  1020     10C5                     STR_34          equ	STR_11+6
  1021     10C5                     STR_40          equ	STR_11+6
  1022     1142                     STR_37          equ	STR_35
  1023     1033                     STR_25          equ	STR_3
  1024     115E                     STR_46          equ	STR_31
  1025     10D5                     STR_32          equ	STR_5
  1026     10D5                     STR_47          equ	STR_5
  1027     10A9                     STR_48          equ	STR_33
  1028     1130                     STR_38          equ	STR_36
  1029     1130                     STR_39          equ	STR_36
  1030     109E                     STR_45          equ	STR_30
  1031                           
  1032                           	psect	cinit
  1033     000F                     start_initialization:	
  1034                           ; #config settings
  1035                           
  1036     000F                     __initialization:
  1037                           
  1038                           ; Initialize objects allocated to BANK1
  1039     000F  1383               	bcf	3,7	;select IRP bank0
  1040     0010  30C6               	movlw	low (__pdataBANK1+38)
  1041     0011  00FD               	movwf	btemp+-1
  1042     0012  3007               	movlw	high __pidataBANK1
  1043     0013  00FE               	movwf	btemp
  1044     0014  30DA               	movlw	low __pidataBANK1
  1045     0015  00FF               	movwf	btemp+1
  1046     0016  30A0               	movlw	low __pdataBANK1
  1047     0017  0084               	movwf	4
  1048     0018  160A  118A  2461  120A  118A  	fcall	init_ram0
  1049                           
  1050                           ; Initialize objects allocated to COMMON
  1051     001D  160A  118A  241A  120A  118A  	fcall	__pidataCOMMON	;fetch initializer
  1052     0022  00F9               	movwf	__pdataCOMMON& (0+127)
  1053     0023  160A  118A  241B  120A  118A  	fcall	__pidataCOMMON+1	;fetch initializer
  1054     0028  00FA               	movwf	(__pdataCOMMON+1)& (0+127)
  1055     0029  160A  118A  241C  120A  118A  	fcall	__pidataCOMMON+2	;fetch initializer
  1056     002E  00FB               	movwf	(__pdataCOMMON+2)& (0+127)
  1057                           
  1058                           ; Clear objects allocated to BANK1
  1059     002F  1683               	bsf	3,5	;RP0=1, select bank1
  1060     0030  1303               	bcf	3,6	;RP1=0, select bank1
  1061     0031  01C6               	clrf	__pbssBANK1& (0+127)
  1062     0032  01C7               	clrf	(__pbssBANK1+1)& (0+127)
  1063     0033  01C8               	clrf	(__pbssBANK1+2)& (0+127)
  1064     0034  01C9               	clrf	(__pbssBANK1+3)& (0+127)
  1065     0035  01CA               	clrf	(__pbssBANK1+4)& (0+127)
  1066     0036  01CB               	clrf	(__pbssBANK1+5)& (0+127)
  1067     0037  01CC               	clrf	(__pbssBANK1+6)& (0+127)
  1068                           
  1069                           ; Clear objects allocated to BANK0
  1070     0038  1283               	bcf	3,5	;RP0=0, select bank0
  1071     0039  1303               	bcf	3,6	;RP1=0, select bank0
  1072     003A  01E8               	clrf	__pbssBANK0& (0+127)
  1073     003B  01E9               	clrf	(__pbssBANK0+1)& (0+127)
  1074     003C  01EA               	clrf	(__pbssBANK0+2)& (0+127)
  1075     003D  01EB               	clrf	(__pbssBANK0+3)& (0+127)
  1076     003E  01EC               	clrf	(__pbssBANK0+4)& (0+127)
  1077     003F  01ED               	clrf	(__pbssBANK0+5)& (0+127)
  1078     0040  01EE               	clrf	(__pbssBANK0+6)& (0+127)
  1079     0041                     end_of_initialization:	
  1080                           ;End of C runtime variable initialization code
  1081                           
  1082     0041                     __end_of__initialization:
  1083     0041  0183               	clrf	3
  1084     0042  120A  158A  2B1B   	ljmp	_main	;jump to C main() function
  1085                           
  1086                           	psect	dataCOMMON
  1087     0079                     __pdataCOMMON:
  1088     0079                     _operational_state:
  1089     0079                     	ds	2
  1090     007B                     read_digital_keypad@once:
  1091     007B                     	ds	1
  1092                           
  1093                           	psect	bssBANK0
  1094     0068                     __pbssBANK0:
  1095     0068                     _time:
  1096     0068                     	ds	1
  1097     0069                     _wash_time:
  1098     0069                     	ds	1
  1099     006A                     _total_time:
  1100     006A                     	ds	1
  1101     006B                     _level:
  1102     006B                     	ds	1
  1103     006C                     _program_no:
  1104     006C                     	ds	1
  1105     006D                     _min:
  1106     006D                     	ds	1
  1107     006E                     _sec:
  1108     006E                     	ds	1
  1109                           
  1110                           	psect	bssBANK1
  1111     00C6                     __pbssBANK1:
  1112     00C6                     isr@count:
  1113     00C6                     	ds	4
  1114     00CA                     _spin_time:
  1115     00CA                     	ds	1
  1116     00CB                     _rinse_time:
  1117     00CB                     	ds	1
  1118     00CC                     read_digital_keypad@pre_key:
  1119     00CC                     	ds	1
  1120                           
  1121                           	psect	dataBANK1
  1122     00A0                     __pdataBANK1:
  1123     00A0                     _washing_program:
  1124     00A0                     	ds	24
  1125     00B8                     _water_level_options:
  1126     00B8                     	ds	10
  1127     00C2                     _reset_flag:
  1128     00C2                     	ds	2
  1129     00C4                     read_digital_keypad@longpressed:
  1130     00C4                     	ds	2
  1131                           
  1132                           	psect	inittext
  1133     145D                     init_fetch0:	
  1134                           ;	Called with low address in FSR and high address in W
  1135                           
  1136     145D  087E               	movf	btemp,w
  1137     145E  008A               	movwf	10
  1138     145F  087F               	movf	btemp+1,w
  1139     1460  0082               	movwf	2
  1140     1461                     init_ram0:	
  1141                           ;Called with:
  1142                           ;	high address of idata address in btemp 
  1143                           ;	low address of idata address in btemp+1 
  1144                           ;	low address of data in FSR
  1145                           ;	high address + 1 of data in btemp-1
  1146                           
  1147     1461  160A  118A  245D  160A  118A  	fcall	init_fetch0
  1148     1466  0080               	movwf	0
  1149     1467  0A84               	incf	4,f
  1150     1468  0804               	movf	4,w
  1151     1469  067D               	xorwf	btemp+-1,w
  1152     146A  1903               	btfsc	3,2
  1153     146B  3400               	retlw	0
  1154     146C  0AFF               	incf	btemp+1,f
  1155     146D  1903               	btfsc	3,2
  1156     146E  0AFE               	incf	btemp,f
  1157     146F  2C61               	goto	init_ram0
  1158                           
  1159                           	psect	cstackBANK1
  1160     00CD                     __pcstackBANK1:
  1161     00CD                     main@delay:
  1162                           
  1163                           ; 2 bytes @ 0x0
  1164     00CD                     	ds	2
  1165     00CF                     main@delay_127:
  1166                           
  1167                           ; 2 bytes @ 0x2
  1168     00CF                     	ds	2
  1169     00D1                     main@key:
  1170                           
  1171                           ; 1 bytes @ 0x4
  1172     00D1                     	ds	1
  1173                           
  1174                           	psect	cstackCOMMON
  1175     0070                     __pcstackCOMMON:
  1176     0070                     ?_init_timer2:
  1177     0070                     ?_clear_clcd:	
  1178                           ; 1 bytes @ 0x0
  1179                           
  1180     0070                     ?_power_ON_screen:	
  1181                           ; 1 bytes @ 0x0
  1182                           
  1183     0070                     ?_set_time:	
  1184                           ; 1 bytes @ 0x0
  1185                           
  1186     0070                     ?_washing_program_:	
  1187                           ; 1 bytes @ 0x0
  1188                           
  1189     0070                     ?_water_level_screen:	
  1190                           ; 1 bytes @ 0x0
  1191                           
  1192     0070                     ?_start:	
  1193                           ; 1 bytes @ 0x0
  1194                           
  1195     0070                     ?_door_status_check:	
  1196                           ; 1 bytes @ 0x0
  1197                           
  1198     0070                     ?_init_display_controller:	
  1199                           ; 1 bytes @ 0x0
  1200                           
  1201     0070                     ?_init_clcd:	
  1202                           ; 1 bytes @ 0x0
  1203                           
  1204     0070                     ?_init_digital_keypad:	
  1205                           ; 1 bytes @ 0x0
  1206                           
  1207     0070                     ?_read_digital_keypad:	
  1208                           ; 1 bytes @ 0x0
  1209                           
  1210     0070                     ?_isr:	
  1211                           ; 1 bytes @ 0x0
  1212                           
  1213     0070                     ?_init_config:	
  1214                           ; 1 bytes @ 0x0
  1215                           
  1216     0070                     ?_main:	
  1217                           ; 1 bytes @ 0x0
  1218                           
  1219     0070                     read_digital_keypad@mode:	
  1220                           ; 1 bytes @ 0x0
  1221                           
  1222     0070                     ??_isr:	
  1223                           ; 1 bytes @ 0x0
  1224                           
  1225                           
  1226                           ; 1 bytes @ 0x0
  1227     0070                     	ds	2
  1228     0072                     ?_clcd_write:
  1229     0072                     ?___bmul:	
  1230                           ; 1 bytes @ 0x2
  1231                           
  1232     0072                     ?__Umul8_16:	
  1233                           ; 1 bytes @ 0x2
  1234                           
  1235     0072                     ?___awdiv:	
  1236                           ; 2 bytes @ 0x2
  1237                           
  1238     0072                     ?___awmod:	
  1239                           ; 2 bytes @ 0x2
  1240                           
  1241     0072                     ?___xxtofl:	
  1242                           ; 2 bytes @ 0x2
  1243                           
  1244     0072                     clcd_write@mode:	
  1245                           ; 4 bytes @ 0x2
  1246                           
  1247     0072                     read_digital_keypad@key:	
  1248                           ; 1 bytes @ 0x2
  1249                           
  1250     0072                     ___bmul@multiplicand:	
  1251                           ; 1 bytes @ 0x2
  1252                           
  1253     0072                     ___fladd@signs:	
  1254                           ; 1 bytes @ 0x2
  1255                           
  1256     0072                     __Umul8_16@multiplicand:	
  1257                           ; 1 bytes @ 0x2
  1258                           
  1259     0072                     ___awdiv@divisor:	
  1260                           ; 1 bytes @ 0x2
  1261                           
  1262     0072                     ___awmod@divisor:	
  1263                           ; 2 bytes @ 0x2
  1264                           
  1265     0072                     ___xxtofl@val:	
  1266                           ; 2 bytes @ 0x2
  1267                           
  1268     0072                     ??_init_timer2:	
  1269                           ; 4 bytes @ 0x2
  1270                           
  1271     0072                     ??_set_time:	
  1272                           ; 1 bytes @ 0x2
  1273                           
  1274     0072                     ??_init_digital_keypad:	
  1275                           ; 1 bytes @ 0x2
  1276                           
  1277     0072                     ??_read_digital_keypad:	
  1278                           ; 1 bytes @ 0x2
  1279                           
  1280                           
  1281                           ; 1 bytes @ 0x2
  1282     0072                     	ds	1
  1283     0073                     ___bmul@product:
  1284     0073                     ___fladd@aexp:	
  1285                           ; 1 bytes @ 0x3
  1286                           
  1287     0073                     ??_clcd_write:	
  1288                           ; 1 bytes @ 0x3
  1289                           
  1290     0073                     ??___bmul:	
  1291                           ; 1 bytes @ 0x3
  1292                           
  1293                           
  1294                           ; 1 bytes @ 0x3
  1295     0073                     	ds	1
  1296     0074                     ___bmul@multiplier:
  1297     0074                     ___fladd@bexp:	
  1298                           ; 1 bytes @ 0x4
  1299                           
  1300     0074                     ___awdiv@dividend:	
  1301                           ; 1 bytes @ 0x4
  1302                           
  1303     0074                     ___awmod@dividend:	
  1304                           ; 2 bytes @ 0x4
  1305                           
  1306     0074                     ??__Umul8_16:	
  1307                           ; 2 bytes @ 0x4
  1308                           
  1309                           
  1310                           ; 1 bytes @ 0x4
  1311     0074                     	ds	1
  1312     0075                     clcd_write@byte:
  1313     0075                     ___fladd@grs:	
  1314                           ; 1 bytes @ 0x5
  1315                           
  1316                           
  1317                           ; 1 bytes @ 0x5
  1318     0075                     	ds	1
  1319     0076                     ___awmod@counter:
  1320     0076                     ___fltol@sign1:	
  1321                           ; 1 bytes @ 0x6
  1322                           
  1323     0076                     ??_clear_clcd:	
  1324                           ; 1 bytes @ 0x6
  1325                           
  1326     0076                     ??_init_display_controller:	
  1327                           ; 1 bytes @ 0x6
  1328                           
  1329     0076                     ??___awdiv:	
  1330                           ; 1 bytes @ 0x6
  1331                           
  1332     0076                     ??___awmod:	
  1333                           ; 1 bytes @ 0x6
  1334                           
  1335     0076                     ??___flsub:	
  1336                           ; 1 bytes @ 0x6
  1337                           
  1338                           
  1339                           ; 1 bytes @ 0x6
  1340     0076                     	ds	1
  1341     0077                     ___awmod@sign:
  1342     0077                     ___fltol@exp1:	
  1343                           ; 1 bytes @ 0x7
  1344                           
  1345                           
  1346                           ; 1 bytes @ 0x7
  1347     0077                     	ds	1
  1348     0078                     ?_clcd_putch:
  1349     0078                     clcd_putch@addr:	
  1350                           ; 1 bytes @ 0x8
  1351                           
  1352     0078                     ??_door_status_check:	
  1353                           ; 1 bytes @ 0x8
  1354                           
  1355     0078                     ??_init_clcd:	
  1356                           ; 1 bytes @ 0x8
  1357                           
  1358     0078                     ??_clcd_print:	
  1359                           ; 1 bytes @ 0x8
  1360                           
  1361     0078                     ??_init_config:	
  1362                           ; 1 bytes @ 0x8
  1363                           
  1364                           
  1365                           ; 1 bytes @ 0x8
  1366     0078                     	ds	1
  1367     0079                     ??_clcd_putch:
  1368                           
  1369                           	psect	cstackBANK0
  1370     0020                     __pcstackBANK0:	
  1371                           ; 1 bytes @ 0x9
  1372                           
  1373     0020                     ?_clcd_print:
  1374     0020                     ?___fladd:	
  1375                           ; 1 bytes @ 0x0
  1376                           
  1377     0020                     ___awdiv@counter:	
  1378                           ; 4 bytes @ 0x0
  1379                           
  1380     0020                     clcd_print@str:	
  1381                           ; 1 bytes @ 0x0
  1382                           
  1383     0020                     __Umul8_16@product:	
  1384                           ; 2 bytes @ 0x0
  1385                           
  1386     0020                     ___fladd@b:	
  1387                           ; 2 bytes @ 0x0
  1388                           
  1389     0020                     ??___xxtofl:	
  1390                           ; 4 bytes @ 0x0
  1391                           
  1392                           
  1393                           ; 1 bytes @ 0x0
  1394     0020                     	ds	1
  1395     0021                     ___awdiv@sign:
  1396                           
  1397                           ; 1 bytes @ 0x1
  1398     0021                     	ds	1
  1399     0022                     clcd_print@addr:
  1400     0022                     ___awdiv@quotient:	
  1401                           ; 1 bytes @ 0x2
  1402                           
  1403     0022                     __Umul8_16@word_mpld:	
  1404                           ; 2 bytes @ 0x2
  1405                           
  1406                           
  1407                           ; 2 bytes @ 0x2
  1408     0022                     	ds	2
  1409     0024                     clcd_putch@data:
  1410     0024                     __Umul8_16@multiplier:	
  1411                           ; 1 bytes @ 0x4
  1412                           
  1413     0024                     ___xxtofl@sign:	
  1414                           ; 1 bytes @ 0x4
  1415                           
  1416     0024                     ___fladd@a:	
  1417                           ; 1 bytes @ 0x4
  1418                           
  1419                           
  1420                           ; 4 bytes @ 0x4
  1421     0024                     	ds	1
  1422     0025                     ___xxtofl@exp:
  1423     0025                     ??_power_ON_screen:	
  1424                           ; 1 bytes @ 0x5
  1425                           
  1426     0025                     ??_washing_program_:	
  1427                           ; 1 bytes @ 0x5
  1428                           
  1429     0025                     ??_water_level_screen:	
  1430                           ; 1 bytes @ 0x5
  1431                           
  1432                           
  1433                           ; 1 bytes @ 0x5
  1434     0025                     	ds	1
  1435     0026                     ___xxtofl@arg:
  1436                           
  1437                           ; 4 bytes @ 0x6
  1438     0026                     	ds	1
  1439     0027                     washing_program_@key:
  1440     0027                     water_level_screen@key:	
  1441                           ; 1 bytes @ 0x7
  1442                           
  1443                           
  1444                           ; 1 bytes @ 0x7
  1445     0027                     	ds	1
  1446     0028                     power_ON_screen@i:
  1447     0028                     ??___fladd:	
  1448                           ; 2 bytes @ 0x8
  1449                           
  1450                           
  1451                           ; 1 bytes @ 0x8
  1452     0028                     	ds	2
  1453     002A                     ?___flmul:
  1454     002A                     power_ON_screen@i_183:	
  1455                           ; 4 bytes @ 0xA
  1456                           
  1457     002A                     ___flmul@b:	
  1458                           ; 2 bytes @ 0xA
  1459                           
  1460                           
  1461                           ; 4 bytes @ 0xA
  1462     002A                     	ds	4
  1463     002E                     ___flmul@a:
  1464                           
  1465                           ; 4 bytes @ 0xE
  1466     002E                     	ds	4
  1467     0032                     ??___flmul:
  1468                           
  1469                           ; 1 bytes @ 0x12
  1470     0032                     	ds	5
  1471     0037                     ___flmul@sign:
  1472                           
  1473                           ; 1 bytes @ 0x17
  1474     0037                     	ds	1
  1475     0038                     ___flmul@aexp:
  1476                           
  1477                           ; 1 bytes @ 0x18
  1478     0038                     	ds	1
  1479     0039                     ___flmul@grs:
  1480                           
  1481                           ; 4 bytes @ 0x19
  1482     0039                     	ds	4
  1483     003D                     ___flmul@bexp:
  1484                           
  1485                           ; 1 bytes @ 0x1D
  1486     003D                     	ds	1
  1487     003E                     ___flmul@prod:
  1488                           
  1489                           ; 4 bytes @ 0x1E
  1490     003E                     	ds	4
  1491     0042                     ___flmul@temp:
  1492                           
  1493                           ; 2 bytes @ 0x22
  1494     0042                     	ds	2
  1495     0044                     ?___fltol:
  1496     0044                     ?___flsub:	
  1497                           ; 4 bytes @ 0x24
  1498                           
  1499     0044                     ___fltol@f1:	
  1500                           ; 4 bytes @ 0x24
  1501                           
  1502     0044                     ___flsub@a:	
  1503                           ; 4 bytes @ 0x24
  1504                           
  1505                           
  1506                           ; 4 bytes @ 0x24
  1507     0044                     	ds	4
  1508     0048                     ___flsub@b:
  1509     0048                     ??___fltol:	
  1510                           ; 4 bytes @ 0x28
  1511                           
  1512                           
  1513                           ; 1 bytes @ 0x28
  1514     0048                     	ds	4
  1515     004C                     ?___flge:
  1516     004C                     ___flge@ff1:	
  1517                           ; 1 bit 
  1518                           
  1519                           
  1520                           ; 4 bytes @ 0x2C
  1521     004C                     	ds	4
  1522     0050                     ___flge@ff2:
  1523                           
  1524                           ; 4 bytes @ 0x30
  1525     0050                     	ds	4
  1526     0054                     ??___flge:
  1527                           
  1528                           ; 1 bytes @ 0x34
  1529     0054                     	ds	4
  1530     0058                     ??_start:
  1531                           
  1532                           ; 1 bytes @ 0x38
  1533     0058                     	ds	12
  1534     0064                     start@key:
  1535                           
  1536                           ; 1 bytes @ 0x44
  1537     0064                     	ds	1
  1538     0065                     ??_main:
  1539                           
  1540                           ; 1 bytes @ 0x45
  1541     0065                     	ds	3
  1542                           
  1543                           	psect	maintext
  1544     0B1B                     __pmaintext:	
  1545 ;;
  1546 ;;Main: autosize = 0, tempsize = 3, incstack = 0, save=0
  1547 ;;
  1548 ;; *************** function _main *****************
  1549 ;; Defined at:
  1550 ;;		line 31 in file "main.c"
  1551 ;; Parameters:    Size  Location     Type
  1552 ;;		None
  1553 ;; Auto vars:     Size  Location     Type
  1554 ;;  delay           2    2[BANK1 ] unsigned int 
  1555 ;;  delay           2    0[BANK1 ] unsigned int 
  1556 ;;  key             1    4[BANK1 ] unsigned char 
  1557 ;; Return value:  Size  Location     Type
  1558 ;;                  1    wreg      void 
  1559 ;; Registers used:
  1560 ;;		wreg, fsr0l, fsr0h, status,2, status,0, btemp+1, pclath, cstack
  1561 ;; Tracked objects:
  1562 ;;		On entry : B00/0
  1563 ;;		On exit  : 0/0
  1564 ;;		Unchanged: 0/0
  1565 ;; Data sizes:     COMMON   BANK0   BANK1   BANK3   BANK2
  1566 ;;      Params:         0       0       0       0       0
  1567 ;;      Locals:         0       0       5       0       0
  1568 ;;      Temps:          0       3       0       0       0
  1569 ;;      Totals:         0       3       5       0       0
  1570 ;;Total ram usage:        8 bytes
  1571 ;; Hardware stack levels required when called: 5
  1572 ;; This function calls:
  1573 ;;		_clcd_print
  1574 ;;		_clear_clcd
  1575 ;;		_init_config
  1576 ;;		_power_ON_screen
  1577 ;;		_read_digital_keypad
  1578 ;;		_set_time
  1579 ;;		_start
  1580 ;;		_washing_program_
  1581 ;;		_water_level_screen
  1582 ;; This function is called by:
  1583 ;;		Startup code after reset
  1584 ;; This function uses a non-reentrant model
  1585 ;;
  1586                           
  1587     0B1B                     _main:	
  1588                           ;psect for function _main
  1589                           
  1590     0B1B                     l4252:	
  1591                           ;incstack = 0
  1592                           ; Regs used in _main: [wreg-fsr0h+status,2+status,0+btemp+1+pclath+cstack]
  1593                           
  1594                           
  1595                           ;main.c: 32: 
  1596     0B1B  160A  118A  2485  120A  158A  	fcall	_init_config
  1597     0B20                     l4254:
  1598                           
  1599                           ;main.c: 33:     while(1){;main.c: 34:         key=read_digital_keypad(0);
  1600     0B20  3043               	movlw	low (STR_1| (0+32768))
  1601     0B21  1283               	bcf	3,5	;RP0=0, select bank0
  1602     0B22  1303               	bcf	3,6	;RP1=0, select bank0
  1603     0B23  00A0               	movwf	clcd_print@str
  1604     0B24  3090               	movlw	high (STR_1| (0+32768))
  1605     0B25  00A1               	movwf	clcd_print@str+1
  1606     0B26  3081               	movlw	129
  1607     0B27  00A2               	movwf	clcd_print@addr
  1608     0B28  160A  118A  24E3  120A  158A  	fcall	_clcd_print
  1609     0B2D                     l4256:
  1610                           
  1611                           ;main.c: 35: 
  1612     0B2D  3011               	movlw	low (STR_2| (0+32768))
  1613     0B2E  1283               	bcf	3,5	;RP0=0, select bank0
  1614     0B2F  1303               	bcf	3,6	;RP1=0, select bank0
  1615     0B30  00A0               	movwf	clcd_print@str
  1616     0B31  3091               	movlw	high (STR_2| (0+32768))
  1617     0B32  00A1               	movwf	clcd_print@str+1
  1618     0B33  30C5               	movlw	197
  1619     0B34  00A2               	movwf	clcd_print@addr
  1620     0B35  160A  118A  24E3  120A  158A  	fcall	_clcd_print
  1621     0B3A                     l4258:
  1622                           
  1623                           ;main.c: 36:         for(unsigned int delay=3000;delay--;);
  1624     0B3A  3033               	movlw	low (STR_3| (0+32768))
  1625     0B3B  1283               	bcf	3,5	;RP0=0, select bank0
  1626     0B3C  1303               	bcf	3,6	;RP1=0, select bank0
  1627     0B3D  00A0               	movwf	clcd_print@str
  1628     0B3E  3090               	movlw	high (STR_3| (0+32768))
  1629     0B3F  00A1               	movwf	clcd_print@str+1
  1630     0B40  3091               	movlw	145
  1631     0B41  00A2               	movwf	clcd_print@addr
  1632     0B42  160A  118A  24E3  120A  158A  	fcall	_clcd_print
  1633                           
  1634                           ;main.c: 37:         if(key == 0x99 && (operational_state ==0x01)){
  1635     0B47  2B5C               	goto	l4264
  1636     0B48                     l4260:
  1637                           
  1638                           ;main.c: 38:             operational_state = 0x02;
  1639     0B48  30B8               	movlw	184
  1640     0B49  1683               	bsf	3,5	;RP0=1, select bank1
  1641     0B4A  1303               	bcf	3,6	;RP1=0, select bank1
  1642     0B4B  00CD               	movwf	main@delay^(0+128)
  1643     0B4C  300B               	movlw	11
  1644     0B4D  00CE               	movwf	(main@delay^(0+128)+1)
  1645     0B4E                     l4262:
  1646     0B4E  3001               	movlw	1
  1647     0B4F  02CD               	subwf	main@delay^(0+128),f
  1648     0B50  3000               	movlw	0
  1649     0B51  1C03               	skipc
  1650     0B52  03CE               	decf	(main@delay+1)^(0+128),f
  1651     0B53  02CE               	subwf	(main@delay+1)^(0+128),f
  1652     0B54  0A4D               	incf	main@delay^(0+128),w
  1653     0B55  1D03               	skipz
  1654     0B56  2B5B               	goto	u5511
  1655     0B57  0A4E               	incf	(main@delay+1)^(0+128),w
  1656     0B58  1D03               	btfss	3,2
  1657     0B59  2B5B               	goto	u5511
  1658     0B5A  2B5C               	goto	u5510
  1659     0B5B                     u5511:
  1660     0B5B  2B4E               	goto	l4262
  1661     0B5C                     u5510:
  1662     0B5C                     l4264:
  1663                           
  1664                           ;main.c: 37:         if(key == 0x99 && (operational_state ==0x01)){
  1665     0B5C  3000               	movlw	0
  1666     0B5D  120A  158A  202B  120A  158A  	fcall	_read_digital_keypad
  1667     0B62  3A2F               	xorlw	47
  1668     0B63  1D03               	skipz
  1669     0B64  2B66               	goto	u5521
  1670     0B65  2B67               	goto	u5520
  1671     0B66                     u5521:
  1672     0B66  2B48               	goto	l4260
  1673     0B67                     u5520:
  1674     0B67                     l4266:
  1675                           
  1676                           ;main.c: 40:         }
  1677     0B67  160A  118A  2439  120A  158A  	fcall	_clear_clcd
  1678     0B6C                     l4268:
  1679                           
  1680                           ;main.c: 41:         else if((key == 0x99) && (operational_state == 0x02)){
  1681     0B6C  160A  118A  26EB  120A  158A  	fcall	_power_ON_screen
  1682     0B71                     l4270:
  1683                           
  1684                           ;main.c: 42:             operational_state = 0x03;
  1685     0B71  301A               	movlw	26
  1686     0B72  1283               	bcf	3,5	;RP0=0, select bank0
  1687     0B73  1303               	bcf	3,6	;RP1=0, select bank0
  1688     0B74  00E7               	movwf	??_main+2
  1689     0B75  305E               	movlw	94
  1690     0B76  00E6               	movwf	??_main+1
  1691     0B77  306D               	movlw	109
  1692     0B78  00E5               	movwf	??_main
  1693     0B79                     u5627:
  1694     0B79  0BE5               	decfsz	??_main,f
  1695     0B7A  2B79               	goto	u5627
  1696     0B7B  0BE6               	decfsz	??_main+1,f
  1697     0B7C  2B79               	goto	u5627
  1698     0B7D  0BE7               	decfsz	??_main+2,f
  1699     0B7E  2B79               	goto	u5627
  1700     0B7F  2B80               	nop2
  1701     0B80                     l4272:
  1702                           
  1703                           ;main.c: 43:             clear_clcd();
  1704     0B80  160A  118A  2439  120A  158A  	fcall	_clear_clcd
  1705     0B85                     l4274:
  1706                           
  1707                           ;main.c: 46:             clcd_print("SW6: STOP",(0x90 + 0));
  1708     0B85  3000               	movlw	0
  1709     0B86  120A  158A  202B  120A  158A  	fcall	_read_digital_keypad
  1710     0B8B  1683               	bsf	3,5	;RP0=1, select bank1
  1711     0B8C  1303               	bcf	3,6	;RP1=0, select bank1
  1712     0B8D  00D1               	movwf	main@key^(0+128)
  1713     0B8E                     l4276:
  1714                           
  1715                           ;main.c: 48:         }
  1716     0B8E  30B8               	movlw	184
  1717     0B8F  00CF               	movwf	main@delay_127^(0+128)
  1718     0B90  300B               	movlw	11
  1719     0B91  00D0               	movwf	(main@delay_127^(0+128)+1)
  1720     0B92                     l4278:
  1721     0B92  3001               	movlw	1
  1722     0B93  02CF               	subwf	main@delay_127^(0+128),f
  1723     0B94  3000               	movlw	0
  1724     0B95  1C03               	skipc
  1725     0B96  03D0               	decf	(main@delay_127+1)^(0+128),f
  1726     0B97  02D0               	subwf	(main@delay_127+1)^(0+128),f
  1727     0B98  0A4F               	incf	main@delay_127^(0+128),w
  1728     0B99  1D03               	skipz
  1729     0B9A  2B9F               	goto	u5531
  1730     0B9B  0A50               	incf	(main@delay_127+1)^(0+128),w
  1731     0B9C  1D03               	btfss	3,2
  1732     0B9D  2B9F               	goto	u5531
  1733     0B9E  2BA0               	goto	u5530
  1734     0B9F                     u5531:
  1735     0B9F  2B92               	goto	l4278
  1736     0BA0                     u5530:
  1737     0BA0                     l4280:
  1738                           
  1739                           ;main.c: 49:         else if(key == 0x2F && operational_state == 0x44){
  1740     0BA0  3099               	movlw	153
  1741     0BA1  0651               	xorwf	main@key^(0+128),w
  1742     0BA2  1D03               	btfss	3,2
  1743     0BA3  2BA5               	goto	u5541
  1744     0BA4  2BA6               	goto	u5540
  1745     0BA5                     u5541:
  1746     0BA5  2BB5               	goto	l4286
  1747     0BA6                     u5540:
  1748     0BA6                     l4282:
  1749     0BA6  0379               	decf	_operational_state,w
  1750     0BA7  047A               	iorwf	_operational_state+1,w
  1751     0BA8  1D03               	btfss	3,2
  1752     0BA9  2BAB               	goto	u5551
  1753     0BAA  2BAC               	goto	u5550
  1754     0BAB                     u5551:
  1755     0BAB  2BB5               	goto	l4286
  1756     0BAC                     u5550:
  1757     0BAC                     l4284:
  1758                           
  1759                           ;main.c: 50:             operational_state = 0x04;
  1760     0BAC  3002               	movlw	2
  1761     0BAD  00F9               	movwf	_operational_state
  1762     0BAE  3000               	movlw	0
  1763     0BAF  00FA               	movwf	_operational_state+1
  1764                           
  1765                           ;main.c: 51:             TMR2ON = 1;
  1766     0BB0  3022               	movlw	34
  1767     0BB1  00C2               	movwf	_reset_flag^(0+128)
  1768     0BB2  3000               	movlw	0
  1769     0BB3  00C3               	movwf	(_reset_flag^(0+128)+1)
  1770                           
  1771                           ;main.c: 52:             RC2 = 1;
  1772     0BB4  2C4A               	goto	l4328
  1773     0BB5                     l4286:
  1774     0BB5  3099               	movlw	153
  1775     0BB6  0651               	xorwf	main@key^(0+128),w
  1776     0BB7  1D03               	btfss	3,2
  1777     0BB8  2BBA               	goto	u5561
  1778     0BB9  2BBB               	goto	u5560
  1779     0BBA                     u5561:
  1780     0BBA  2BF8               	goto	l4302
  1781     0BBB                     u5560:
  1782     0BBB                     l4288:
  1783     0BBB  3002               	movlw	2
  1784     0BBC  0679               	xorwf	_operational_state,w
  1785     0BBD  047A               	iorwf	_operational_state+1,w
  1786     0BBE  1D03               	btfss	3,2
  1787     0BBF  2BC1               	goto	u5571
  1788     0BC0  2BC2               	goto	u5570
  1789     0BC1                     u5571:
  1790     0BC1  2BF8               	goto	l4302
  1791     0BC2                     u5570:
  1792     0BC2                     l4290:
  1793                           
  1794                           ;main.c: 54: 
  1795     0BC2  3003               	movlw	3
  1796     0BC3  00F9               	movwf	_operational_state
  1797     0BC4  3000               	movlw	0
  1798     0BC5  00FA               	movwf	_operational_state+1
  1799     0BC6                     l4292:
  1800                           
  1801                           ;main.c: 55:         switch(operational_state){
  1802     0BC6  160A  118A  2439  120A  158A  	fcall	_clear_clcd
  1803     0BCB                     l4294:
  1804                           
  1805                           ;main.c: 56:                 case 0x01:
  1806     0BCB  306D               	movlw	low (STR_4| (0+32768))
  1807     0BCC  1283               	bcf	3,5	;RP0=0, select bank0
  1808     0BCD  1303               	bcf	3,6	;RP1=0, select bank0
  1809     0BCE  00A0               	movwf	clcd_print@str
  1810     0BCF  3090               	movlw	high (STR_4| (0+32768))
  1811     0BD0  00A1               	movwf	clcd_print@str+1
  1812     0BD1  3080               	movlw	128
  1813     0BD2  00A2               	movwf	clcd_print@addr
  1814     0BD3  160A  118A  24E3  120A  158A  	fcall	_clcd_print
  1815     0BD8                     l4296:
  1816                           
  1817                           ;main.c: 57:                     washing_program_(key);
  1818     0BD8  30D5               	movlw	low (STR_5| (0+32768))
  1819     0BD9  1283               	bcf	3,5	;RP0=0, select bank0
  1820     0BDA  1303               	bcf	3,6	;RP1=0, select bank0
  1821     0BDB  00A0               	movwf	clcd_print@str
  1822     0BDC  3090               	movlw	high (STR_5| (0+32768))
  1823     0BDD  00A1               	movwf	clcd_print@str+1
  1824     0BDE  30C0               	movlw	192
  1825     0BDF  00A2               	movwf	clcd_print@addr
  1826     0BE0  160A  118A  24E3  120A  158A  	fcall	_clcd_print
  1827     0BE5                     l4298:
  1828                           
  1829                           ;main.c: 58:                     break;
  1830     0BE5  30FE               	movlw	low (STR_6| (0+32768))
  1831     0BE6  1283               	bcf	3,5	;RP0=0, select bank0
  1832     0BE7  1303               	bcf	3,6	;RP1=0, select bank0
  1833     0BE8  00A0               	movwf	clcd_print@str
  1834     0BE9  3090               	movlw	high (STR_6| (0+32768))
  1835     0BEA  00A1               	movwf	clcd_print@str+1
  1836     0BEB  3090               	movlw	144
  1837     0BEC  00A2               	movwf	clcd_print@addr
  1838     0BED  160A  118A  24E3  120A  158A  	fcall	_clcd_print
  1839     0BF2                     l4300:
  1840                           
  1841                           ;main.c: 59:                 case 0x02:
  1842     0BF2  120A  158A  2461  120A  158A  	fcall	_set_time
  1843                           
  1844                           ;main.c: 60:                     water_level_screen(key);
  1845     0BF7  2C4A               	goto	l4328
  1846     0BF8                     l4302:
  1847     0BF8  302F               	movlw	47
  1848     0BF9  0651               	xorwf	main@key^(0+128),w
  1849     0BFA  1D03               	btfss	3,2
  1850     0BFB  2BFD               	goto	u5581
  1851     0BFC  2BFE               	goto	u5580
  1852     0BFD                     u5581:
  1853     0BFD  2C0E               	goto	l135
  1854     0BFE                     u5580:
  1855     0BFE                     l4304:
  1856     0BFE  3044               	movlw	68
  1857     0BFF  0679               	xorwf	_operational_state,w
  1858     0C00  047A               	iorwf	_operational_state+1,w
  1859     0C01  1D03               	btfss	3,2
  1860     0C02  2C04               	goto	u5591
  1861     0C03  2C05               	goto	u5590
  1862     0C04                     u5591:
  1863     0C04  2C0E               	goto	l135
  1864     0C05                     u5590:
  1865     0C05                     l4306:
  1866                           
  1867                           ;main.c: 62:                 case 0x03:
  1868     0C05  3004               	movlw	4
  1869     0C06  00F9               	movwf	_operational_state
  1870     0C07  3000               	movlw	0
  1871     0C08  00FA               	movwf	_operational_state+1
  1872     0C09                     l4308:
  1873                           
  1874                           ;main.c: 63:                     if(0x2F==key){
  1875     0C09  1283               	bcf	3,5	;RP0=0, select bank0
  1876     0C0A  1303               	bcf	3,6	;RP1=0, select bank0
  1877     0C0B  1512               	bsf	18,2	;volatile
  1878     0C0C                     l4310:
  1879                           
  1880                           ;main.c: 64:                         operational_state = 0x04;
  1881     0C0C  1507               	bsf	7,2	;volatile
  1882     0C0D  2C4A               	goto	l4328
  1883     0C0E                     l135:
  1884                           
  1885                           ;main.c: 67:                     else if(0x1F==key){
  1886     0C0E  2C4A               	goto	l4328
  1887     0C0F                     l4312:
  1888                           
  1889                           ;main.c: 69:                         reset_flag=0x11;
  1890     0C0F  1683               	bsf	3,5	;RP0=1, select bank1
  1891     0C10  1303               	bcf	3,6	;RP1=0, select bank1
  1892     0C11  0851               	movf	main@key^(0+128),w
  1893     0C12  120A  158A  2206  120A  158A  	fcall	_washing_program_
  1894                           
  1895                           ;main.c: 70:                         continue;
  1896     0C17  2B85               	goto	l4274
  1897     0C18                     l4314:
  1898                           
  1899                           ;main.c: 72:                     break;
  1900     0C18  1683               	bsf	3,5	;RP0=1, select bank1
  1901     0C19  1303               	bcf	3,6	;RP1=0, select bank1
  1902     0C1A  0851               	movf	main@key^(0+128),w
  1903     0C1B  120A  158A  209F  120A  158A  	fcall	_water_level_screen
  1904                           
  1905                           ;main.c: 73:                 case 0x04:
  1906     0C20  2B85               	goto	l4274
  1907     0C21                     l4316:
  1908                           
  1909                           ;main.c: 75:                     break;
  1910     0C21  302F               	movlw	47
  1911     0C22  1683               	bsf	3,5	;RP0=1, select bank1
  1912     0C23  1303               	bcf	3,6	;RP1=0, select bank1
  1913     0C24  0651               	xorwf	main@key^(0+128),w
  1914     0C25  1D03               	btfss	3,2
  1915     0C26  2C28               	goto	u5601
  1916     0C27  2C29               	goto	u5600
  1917     0C28                     u5601:
  1918     0C28  2C32               	goto	l4320
  1919     0C29                     u5600:
  1920     0C29                     l4318:
  1921                           
  1922                           ;main.c: 76:         }
  1923     0C29  3004               	movlw	4
  1924     0C2A  00F9               	movwf	_operational_state
  1925     0C2B  3000               	movlw	0
  1926     0C2C  00FA               	movwf	_operational_state+1
  1927                           
  1928                           ;main.c: 77: 
  1929     0C2D  3033               	movlw	51
  1930     0C2E  00C2               	movwf	_reset_flag^(0+128)
  1931     0C2F  3000               	movlw	0
  1932     0C30  00C3               	movwf	(_reset_flag^(0+128)+1)
  1933                           
  1934                           ;main.c: 78:     }
  1935     0C31  2B85               	goto	l4274
  1936     0C32                     l4320:
  1937     0C32  301F               	movlw	31
  1938     0C33  0651               	xorwf	main@key^(0+128),w
  1939     0C34  1D03               	btfss	3,2
  1940     0C35  2C37               	goto	u5611
  1941     0C36  2C38               	goto	u5610
  1942     0C37                     u5611:
  1943     0C37  2C5D               	goto	l141
  1944     0C38                     u5610:
  1945     0C38                     l4322:
  1946                           
  1947                           ;main.c: 80: }
  1948     0C38  3001               	movlw	1
  1949     0C39  00F9               	movwf	_operational_state
  1950     0C3A  3000               	movlw	0
  1951     0C3B  00FA               	movwf	_operational_state+1
  1952     0C3C  3011               	movlw	17
  1953     0C3D  00C2               	movwf	_reset_flag^(0+128)
  1954     0C3E  3000               	movlw	0
  1955     0C3F  00C3               	movwf	(_reset_flag^(0+128)+1)
  1956     0C40  2B85               	goto	l4274
  1957     0C41                     l4324:
  1958     0C41  1683               	bsf	3,5	;RP0=1, select bank1
  1959     0C42  1303               	bcf	3,6	;RP1=0, select bank1
  1960     0C43  0851               	movf	main@key^(0+128),w
  1961     0C44  120A  118A  2045  120A  158A  	fcall	_start
  1962     0C49  2B85               	goto	l4274
  1963     0C4A                     l4328:
  1964                           
  1965                           ; Switch on 2 bytes has been partitioned into a top level switch of size 1, and 1 sub-sw
      +                          itches
  1966                           ; Switch size 1, requested type "simple"
  1967                           ; Number of cases is 1, Range of values is 0 to 0
  1968                           ; switch strategies available:
  1969                           ; Name         Instructions Cycles
  1970                           ; simple_byte            4     3 (average)
  1971                           ; direct_byte           11     8 (fixed)
  1972                           ; jumptable            260     6 (fixed)
  1973                           ;	Chosen strategy is simple_byte
  1974     0C4A  087A               	movf	_operational_state+1,w
  1975     0C4B  3A00               	xorlw	0	; case 0
  1976     0C4C  1903               	skipnz
  1977     0C4D  2C4F               	goto	l4366
  1978     0C4E  2B85               	goto	l4274
  1979     0C4F                     l4366:
  1980                           
  1981                           ; Switch size 1, requested type "simple"
  1982                           ; Number of cases is 4, Range of values is 1 to 4
  1983                           ; switch strategies available:
  1984                           ; Name         Instructions Cycles
  1985                           ; simple_byte           13     7 (average)
  1986                           ; direct_byte           23    11 (fixed)
  1987                           ; jumptable            263     9 (fixed)
  1988                           ;	Chosen strategy is simple_byte
  1989     0C4F  0879               	movf	_operational_state,w
  1990     0C50  3A01               	xorlw	1	; case 1
  1991     0C51  1903               	skipnz
  1992     0C52  2C0F               	goto	l4312
  1993     0C53  3A03               	xorlw	3	; case 2
  1994     0C54  1903               	skipnz
  1995     0C55  2C18               	goto	l4314
  1996     0C56  3A01               	xorlw	1	; case 3
  1997     0C57  1903               	skipnz
  1998     0C58  2C21               	goto	l4316
  1999     0C59  3A07               	xorlw	7	; case 4
  2000     0C5A  1903               	skipnz
  2001     0C5B  2C41               	goto	l4324
  2002     0C5C  2B85               	goto	l4274
  2003     0C5D                     l141:
  2004     0C5D  2B85               	goto	l4274
  2005     0C5E  120A  118A  280C   	ljmp	start
  2006     0C61                     __end_of_main:
  2007                           
  2008                           	psect	text1
  2009     089F                     __ptext1:	
  2010 ;; *************** function _water_level_screen *****************
  2011 ;; Defined at:
  2012 ;;		line 69 in file "washing_machine_function_def.c"
  2013 ;; Parameters:    Size  Location     Type
  2014 ;;  key             1    wreg     unsigned char 
  2015 ;; Auto vars:     Size  Location     Type
  2016 ;;  key             1    7[BANK0 ] unsigned char 
  2017 ;; Return value:  Size  Location     Type
  2018 ;;                  1    wreg      void 
  2019 ;; Registers used:
  2020 ;;		wreg, fsr0l, fsr0h, status,2, status,0, btemp+1, pclath, cstack
  2021 ;; Tracked objects:
  2022 ;;		On entry : 0/0
  2023 ;;		On exit  : 0/0
  2024 ;;		Unchanged: 0/0
  2025 ;; Data sizes:     COMMON   BANK0   BANK1   BANK3   BANK2
  2026 ;;      Params:         0       0       0       0       0
  2027 ;;      Locals:         0       1       0       0       0
  2028 ;;      Temps:          0       2       0       0       0
  2029 ;;      Totals:         0       3       0       0       0
  2030 ;;Total ram usage:        3 bytes
  2031 ;; Hardware stack levels used: 1
  2032 ;; Hardware stack levels required when called: 3
  2033 ;; This function calls:
  2034 ;;		___awmod
  2035 ;;		_clcd_print
  2036 ;;		_clcd_putch
  2037 ;;		_clear_clcd
  2038 ;; This function is called by:
  2039 ;;		_main
  2040 ;; This function uses a non-reentrant model
  2041 ;;
  2042                           
  2043     089F                     _water_level_screen:	
  2044                           ;psect for function _water_level_screen
  2045                           
  2046                           
  2047                           ;incstack = 0
  2048                           ; Regs used in _water_level_screen: [wreg-fsr0h+status,2+status,0+btemp+1+pclath+cstack]
  2049                           ;water_level_screen@key stored from wreg
  2050     089F  1283               	bcf	3,5	;RP0=0, select bank0
  2051     08A0  1303               	bcf	3,6	;RP1=0, select bank0
  2052     08A1  00A7               	movwf	water_level_screen@key
  2053     08A2                     l3848:
  2054                           
  2055                           ;washing_machine_function_def.c: 70:     if( reset_flag == 0x22){
  2056     08A2  3022               	movlw	34
  2057     08A3  1683               	bsf	3,5	;RP0=1, select bank1
  2058     08A4  1303               	bcf	3,6	;RP1=0, select bank1
  2059     08A5  0642               	xorwf	_reset_flag^(0+128),w
  2060     08A6  0443               	iorwf	(_reset_flag+1)^(0+128),w
  2061     08A7  1D03               	btfss	3,2
  2062     08A8  28AA               	goto	u5081
  2063     08A9  28AB               	goto	u5080
  2064     08AA                     u5081:
  2065     08AA  28B6               	goto	l3854
  2066     08AB                     u5080:
  2067     08AB                     l3850:
  2068                           
  2069                           ;washing_machine_function_def.c: 71:         clear_clcd();
  2070     08AB  160A  118A  2439  120A  158A  	fcall	_clear_clcd
  2071     08B0                     l3852:
  2072                           
  2073                           ;washing_machine_function_def.c: 72:         reset_flag = 0xFF;
  2074     08B0  30FF               	movlw	255
  2075     08B1  1683               	bsf	3,5	;RP0=1, select bank1
  2076     08B2  1303               	bcf	3,6	;RP1=0, select bank1
  2077     08B3  00C2               	movwf	_reset_flag^(0+128)
  2078     08B4  3000               	movlw	0
  2079     08B5  00C3               	movwf	(_reset_flag^(0+128)+1)
  2080     08B6                     l3854:
  2081                           
  2082                           ;washing_machine_function_def.c: 75:     if(key == 0x37){
  2083     08B6  3037               	movlw	55
  2084     08B7  1283               	bcf	3,5	;RP0=0, select bank0
  2085     08B8  1303               	bcf	3,6	;RP1=0, select bank0
  2086     08B9  0627               	xorwf	water_level_screen@key,w
  2087     08BA  1D03               	btfss	3,2
  2088     08BB  28BD               	goto	u5091
  2089     08BC  28BE               	goto	u5090
  2090     08BD                     u5091:
  2091     08BD  28D9               	goto	l3858
  2092     08BE                     u5090:
  2093     08BE                     l3856:
  2094                           
  2095                           ;washing_machine_function_def.c: 76:     clear_clcd();
  2096     08BE  160A  118A  2439  120A  158A  	fcall	_clear_clcd
  2097                           
  2098                           ;washing_machine_function_def.c: 77:     level = (level + 1) % 5;
  2099     08C3  3005               	movlw	5
  2100     08C4  00F2               	movwf	___awmod@divisor
  2101     08C5  3000               	movlw	0
  2102     08C6  00F3               	movwf	___awmod@divisor+1
  2103     08C7  1283               	bcf	3,5	;RP0=0, select bank0
  2104     08C8  1303               	bcf	3,6	;RP1=0, select bank0
  2105     08C9  086B               	movf	_level,w
  2106     08CA  3E01               	addlw	1
  2107     08CB  00F4               	movwf	___awmod@dividend
  2108     08CC  3000               	movlw	0
  2109     08CD  1803               	skipnc
  2110     08CE  3001               	movlw	1
  2111     08CF  00F5               	movwf	___awmod@dividend+1
  2112     08D0  160A  118A  25C4  120A  158A  	fcall	___awmod
  2113     08D5  0872               	movf	?___awmod,w
  2114     08D6  1283               	bcf	3,5	;RP0=0, select bank0
  2115     08D7  1303               	bcf	3,6	;RP1=0, select bank0
  2116     08D8  00EB               	movwf	_level
  2117     08D9                     l3858:
  2118                           
  2119                           ;washing_machine_function_def.c: 81:     clcd_print("WATER LEVEL",(0x80 + 0));
  2120     08D9  307A               	movlw	low (STR_27| (0+32768))
  2121     08DA  00A0               	movwf	clcd_print@str
  2122     08DB  3090               	movlw	high (STR_27| (0+32768))
  2123     08DC  00A1               	movwf	clcd_print@str+1
  2124     08DD  3080               	movlw	128
  2125     08DE  00A2               	movwf	clcd_print@addr
  2126     08DF  160A  118A  24E3  120A  158A  	fcall	_clcd_print
  2127     08E4                     l3860:
  2128                           
  2129                           ;washing_machine_function_def.c: 82:     clcd_putch('*',(0xC0 + 0));
  2130     08E4  30C0               	movlw	192
  2131     08E5  00F8               	movwf	clcd_putch@addr
  2132     08E6  302A               	movlw	42
  2133     08E7  160A  118A  2470  120A  158A  	fcall	_clcd_putch
  2134                           
  2135                           ;washing_machine_function_def.c: 83:     clcd_print(water_level_options[level],(0xC0 + 1
      +                          ));
  2136     08EC  1283               	bcf	3,5	;RP0=0, select bank0
  2137     08ED  1303               	bcf	3,6	;RP1=0, select bank0
  2138     08EE  086B               	movf	_level,w
  2139     08EF  00A5               	movwf	??_water_level_screen
  2140     08F0  0725               	addwf	??_water_level_screen,w
  2141     08F1  3EB8               	addlw	(low (_water_level_options| 0))& (0+255)
  2142     08F2  0084               	movwf	4
  2143     08F3  1383               	bcf	3,7	;select IRP bank1
  2144     08F4  0800               	movf	0,w
  2145     08F5  00A0               	movwf	clcd_print@str
  2146     08F6  0A84               	incf	4,f
  2147     08F7  0800               	movf	0,w
  2148     08F8  0384               	decf	4,f
  2149     08F9  00A1               	movwf	clcd_print@str+1
  2150     08FA  30C1               	movlw	193
  2151     08FB  00A2               	movwf	clcd_print@addr
  2152     08FC  160A  118A  24E3  120A  158A  	fcall	_clcd_print
  2153                           
  2154                           ;washing_machine_function_def.c: 84:     clcd_print(water_level_options[(level+1)%5],(0x
      +                          90 + 1));
  2155     0901  3005               	movlw	5
  2156     0902  00F2               	movwf	___awmod@divisor
  2157     0903  3000               	movlw	0
  2158     0904  00F3               	movwf	___awmod@divisor+1
  2159     0905  1283               	bcf	3,5	;RP0=0, select bank0
  2160     0906  1303               	bcf	3,6	;RP1=0, select bank0
  2161     0907  086B               	movf	_level,w
  2162     0908  3E01               	addlw	1
  2163     0909  00F4               	movwf	___awmod@dividend
  2164     090A  3000               	movlw	0
  2165     090B  1803               	skipnc
  2166     090C  3001               	movlw	1
  2167     090D  00F5               	movwf	___awmod@dividend+1
  2168     090E  160A  118A  25C4  120A  158A  	fcall	___awmod
  2169     0913  0872               	movf	?___awmod,w
  2170     0914  1283               	bcf	3,5	;RP0=0, select bank0
  2171     0915  1303               	bcf	3,6	;RP1=0, select bank0
  2172     0916  00A5               	movwf	??_water_level_screen
  2173     0917  0725               	addwf	??_water_level_screen,w
  2174     0918  3EB8               	addlw	(low (_water_level_options| 0))& (0+255)
  2175     0919  0084               	movwf	4
  2176     091A  1383               	bcf	3,7	;select IRP bank1
  2177     091B  0800               	movf	0,w
  2178     091C  00A0               	movwf	clcd_print@str
  2179     091D  0A84               	incf	4,f
  2180     091E  0800               	movf	0,w
  2181     091F  0384               	decf	4,f
  2182     0920  00A1               	movwf	clcd_print@str+1
  2183     0921  3091               	movlw	145
  2184     0922  00A2               	movwf	clcd_print@addr
  2185     0923  160A  118A  24E3  120A  158A  	fcall	_clcd_print
  2186                           
  2187                           ;washing_machine_function_def.c: 85:     clcd_print(water_level_options[(level+2)%5],(0x
      +                          D0 + 1));
  2188     0928  3005               	movlw	5
  2189     0929  00F2               	movwf	___awmod@divisor
  2190     092A  3000               	movlw	0
  2191     092B  00F3               	movwf	___awmod@divisor+1
  2192     092C  1283               	bcf	3,5	;RP0=0, select bank0
  2193     092D  1303               	bcf	3,6	;RP1=0, select bank0
  2194     092E  086B               	movf	_level,w
  2195     092F  3E02               	addlw	2
  2196     0930  00F4               	movwf	___awmod@dividend
  2197     0931  3000               	movlw	0
  2198     0932  1803               	skipnc
  2199     0933  3001               	movlw	1
  2200     0934  00F5               	movwf	___awmod@dividend+1
  2201     0935  160A  118A  25C4  120A  158A  	fcall	___awmod
  2202     093A  0872               	movf	?___awmod,w
  2203     093B  1283               	bcf	3,5	;RP0=0, select bank0
  2204     093C  1303               	bcf	3,6	;RP1=0, select bank0
  2205     093D  00A5               	movwf	??_water_level_screen
  2206     093E  0725               	addwf	??_water_level_screen,w
  2207     093F  3EB8               	addlw	(low (_water_level_options| 0))& (0+255)
  2208     0940  0084               	movwf	4
  2209     0941  1383               	bcf	3,7	;select IRP bank1
  2210     0942  0800               	movf	0,w
  2211     0943  00A0               	movwf	clcd_print@str
  2212     0944  0A84               	incf	4,f
  2213     0945  0800               	movf	0,w
  2214     0946  0384               	decf	4,f
  2215     0947  00A1               	movwf	clcd_print@str+1
  2216     0948  30D1               	movlw	209
  2217     0949  00A2               	movwf	clcd_print@addr
  2218     094A  160A  118A  24E3  120A  158A  	fcall	_clcd_print
  2219     094F                     l228:
  2220     094F  0008               	return
  2221     0950                     __end_of_water_level_screen:
  2222                           
  2223                           	psect	text2
  2224     0A06                     __ptext2:	
  2225 ;; *************** function _washing_program_ *****************
  2226 ;; Defined at:
  2227 ;;		line 39 in file "washing_machine_function_def.c"
  2228 ;; Parameters:    Size  Location     Type
  2229 ;;  key             1    wreg     unsigned char 
  2230 ;; Auto vars:     Size  Location     Type
  2231 ;;  key             1    7[BANK0 ] unsigned char 
  2232 ;; Return value:  Size  Location     Type
  2233 ;;                  1    wreg      void 
  2234 ;; Registers used:
  2235 ;;		wreg, fsr0l, fsr0h, status,2, status,0, btemp+1, pclath, cstack
  2236 ;; Tracked objects:
  2237 ;;		On entry : 0/0
  2238 ;;		On exit  : 0/0
  2239 ;;		Unchanged: 0/0
  2240 ;; Data sizes:     COMMON   BANK0   BANK1   BANK3   BANK2
  2241 ;;      Params:         0       0       0       0       0
  2242 ;;      Locals:         0       1       0       0       0
  2243 ;;      Temps:          0       2       0       0       0
  2244 ;;      Totals:         0       3       0       0       0
  2245 ;;Total ram usage:        3 bytes
  2246 ;; Hardware stack levels used: 1
  2247 ;; Hardware stack levels required when called: 3
  2248 ;; This function calls:
  2249 ;;		___awmod
  2250 ;;		_clcd_print
  2251 ;;		_clcd_putch
  2252 ;;		_clear_clcd
  2253 ;; This function is called by:
  2254 ;;		_main
  2255 ;; This function uses a non-reentrant model
  2256 ;;
  2257                           
  2258     0A06                     _washing_program_:	
  2259                           ;psect for function _washing_program_
  2260                           
  2261                           
  2262                           ;incstack = 0
  2263                           ; Regs used in _washing_program_: [wreg-fsr0h+status,2+status,0+btemp+1+pclath+cstack]
  2264                           ;washing_program_@key stored from wreg
  2265     0A06  1283               	bcf	3,5	;RP0=0, select bank0
  2266     0A07  1303               	bcf	3,6	;RP1=0, select bank0
  2267     0A08  00A7               	movwf	washing_program_@key
  2268     0A09                     l3822:
  2269                           
  2270                           ;washing_machine_function_def.c: 40:     if(reset_flag == 0x11){
  2271     0A09  3011               	movlw	17
  2272     0A0A  1683               	bsf	3,5	;RP0=1, select bank1
  2273     0A0B  1303               	bcf	3,6	;RP1=0, select bank1
  2274     0A0C  0642               	xorwf	_reset_flag^(0+128),w
  2275     0A0D  0443               	iorwf	(_reset_flag+1)^(0+128),w
  2276     0A0E  1D03               	btfss	3,2
  2277     0A0F  2A11               	goto	u5031
  2278     0A10  2A12               	goto	u5030
  2279     0A11                     u5031:
  2280     0A11  2A1D               	goto	l3828
  2281     0A12                     u5030:
  2282     0A12                     l3824:
  2283                           
  2284                           ;washing_machine_function_def.c: 41:         clear_clcd();
  2285     0A12  160A  118A  2439  120A  158A  	fcall	_clear_clcd
  2286     0A17                     l3826:
  2287                           
  2288                           ;washing_machine_function_def.c: 42:         reset_flag= 0xFF;
  2289     0A17  30FF               	movlw	255
  2290     0A18  1683               	bsf	3,5	;RP0=1, select bank1
  2291     0A19  1303               	bcf	3,6	;RP1=0, select bank1
  2292     0A1A  00C2               	movwf	_reset_flag^(0+128)
  2293     0A1B  3000               	movlw	0
  2294     0A1C  00C3               	movwf	(_reset_flag^(0+128)+1)
  2295     0A1D                     l3828:
  2296                           
  2297                           ;washing_machine_function_def.c: 44:     if(key == 0x37){
  2298     0A1D  3037               	movlw	55
  2299     0A1E  1283               	bcf	3,5	;RP0=0, select bank0
  2300     0A1F  1303               	bcf	3,6	;RP1=0, select bank0
  2301     0A20  0627               	xorwf	washing_program_@key,w
  2302     0A21  1D03               	btfss	3,2
  2303     0A22  2A24               	goto	u5041
  2304     0A23  2A25               	goto	u5040
  2305     0A24                     u5041:
  2306     0A24  2A40               	goto	l3832
  2307     0A25                     u5040:
  2308     0A25                     l3830:
  2309                           
  2310                           ;washing_machine_function_def.c: 45:     clear_clcd();
  2311     0A25  160A  118A  2439  120A  158A  	fcall	_clear_clcd
  2312                           
  2313                           ;washing_machine_function_def.c: 46:     program_no = (program_no + 1) % 12;
  2314     0A2A  300C               	movlw	12
  2315     0A2B  00F2               	movwf	___awmod@divisor
  2316     0A2C  3000               	movlw	0
  2317     0A2D  00F3               	movwf	___awmod@divisor+1
  2318     0A2E  1283               	bcf	3,5	;RP0=0, select bank0
  2319     0A2F  1303               	bcf	3,6	;RP1=0, select bank0
  2320     0A30  086C               	movf	_program_no,w
  2321     0A31  3E01               	addlw	1
  2322     0A32  00F4               	movwf	___awmod@dividend
  2323     0A33  3000               	movlw	0
  2324     0A34  1803               	skipnc
  2325     0A35  3001               	movlw	1
  2326     0A36  00F5               	movwf	___awmod@dividend+1
  2327     0A37  160A  118A  25C4  120A  158A  	fcall	___awmod
  2328     0A3C  0872               	movf	?___awmod,w
  2329     0A3D  1283               	bcf	3,5	;RP0=0, select bank0
  2330     0A3E  1303               	bcf	3,6	;RP1=0, select bank0
  2331     0A3F  00EC               	movwf	_program_no
  2332     0A40                     l3832:
  2333                           
  2334                           ;washing_machine_function_def.c: 49:     clcd_print("washing program",(0x80 + 0));
  2335     0A40  3023               	movlw	low (STR_26| (0+32768))
  2336     0A41  00A0               	movwf	clcd_print@str
  2337     0A42  3090               	movlw	high (STR_26| (0+32768))
  2338     0A43  00A1               	movwf	clcd_print@str+1
  2339     0A44  3080               	movlw	128
  2340     0A45  00A2               	movwf	clcd_print@addr
  2341     0A46  160A  118A  24E3  120A  158A  	fcall	_clcd_print
  2342     0A4B                     l3834:
  2343                           
  2344                           ;washing_machine_function_def.c: 50:     clcd_putch('*' , (0xC0 + 0));
  2345     0A4B  30C0               	movlw	192
  2346     0A4C  00F8               	movwf	clcd_putch@addr
  2347     0A4D  302A               	movlw	42
  2348     0A4E  160A  118A  2470  120A  158A  	fcall	_clcd_putch
  2349     0A53                     l3836:
  2350                           
  2351                           ;washing_machine_function_def.c: 52:     if(program_no<=9){
  2352     0A53  300A               	movlw	10
  2353     0A54  1283               	bcf	3,5	;RP0=0, select bank0
  2354     0A55  1303               	bcf	3,6	;RP1=0, select bank0
  2355     0A56  026C               	subwf	_program_no,w
  2356     0A57  1803               	skipnc
  2357     0A58  2A5A               	goto	u5051
  2358     0A59  2A5B               	goto	u5050
  2359     0A5A                     u5051:
  2360     0A5A  2A99               	goto	l3840
  2361     0A5B                     u5050:
  2362     0A5B                     l3838:
  2363                           
  2364                           ;washing_machine_function_def.c: 53:       clcd_print(washing_program[program_no],(0xC0 
      +                          + 1));
  2365     0A5B  086C               	movf	_program_no,w
  2366     0A5C  00A5               	movwf	??_washing_program_
  2367     0A5D  0725               	addwf	??_washing_program_,w
  2368     0A5E  3EA0               	addlw	(low (_washing_program| 0))& (0+255)
  2369     0A5F  0084               	movwf	4
  2370     0A60  1383               	bcf	3,7	;select IRP bank1
  2371     0A61  0800               	movf	0,w
  2372     0A62  00A0               	movwf	clcd_print@str
  2373     0A63  0A84               	incf	4,f
  2374     0A64  0800               	movf	0,w
  2375     0A65  0384               	decf	4,f
  2376     0A66  00A1               	movwf	clcd_print@str+1
  2377     0A67  30C1               	movlw	193
  2378     0A68  00A2               	movwf	clcd_print@addr
  2379     0A69  160A  118A  24E3  120A  158A  	fcall	_clcd_print
  2380                           
  2381                           ;washing_machine_function_def.c: 54:       clcd_print(washing_program[program_no+1],(0x9
      +                          0 + 1));
  2382     0A6E  1283               	bcf	3,5	;RP0=0, select bank0
  2383     0A6F  1303               	bcf	3,6	;RP1=0, select bank0
  2384     0A70  086C               	movf	_program_no,w
  2385     0A71  00A5               	movwf	??_washing_program_
  2386     0A72  0725               	addwf	??_washing_program_,w
  2387     0A73  3EA2               	addlw	(low ((_washing_program| 0+2)))& (0+255)
  2388     0A74  0084               	movwf	4
  2389     0A75  1383               	bcf	3,7	;select IRP bank1
  2390     0A76  0800               	movf	0,w
  2391     0A77  00A0               	movwf	clcd_print@str
  2392     0A78  0A84               	incf	4,f
  2393     0A79  0800               	movf	0,w
  2394     0A7A  0384               	decf	4,f
  2395     0A7B  00A1               	movwf	clcd_print@str+1
  2396     0A7C  3091               	movlw	145
  2397     0A7D  00A2               	movwf	clcd_print@addr
  2398     0A7E  160A  118A  24E3  120A  158A  	fcall	_clcd_print
  2399                           
  2400                           ;washing_machine_function_def.c: 55:       clcd_print(washing_program[program_no+2],(0xD
      +                          0 + 1));
  2401     0A83  1283               	bcf	3,5	;RP0=0, select bank0
  2402     0A84  1303               	bcf	3,6	;RP1=0, select bank0
  2403     0A85  086C               	movf	_program_no,w
  2404     0A86  00A5               	movwf	??_washing_program_
  2405     0A87  0725               	addwf	??_washing_program_,w
  2406     0A88  3EA4               	addlw	(low ((_washing_program| 0+4)))& (0+255)
  2407     0A89  0084               	movwf	4
  2408     0A8A  1383               	bcf	3,7	;select IRP bank1
  2409     0A8B  0800               	movf	0,w
  2410     0A8C  00A0               	movwf	clcd_print@str
  2411     0A8D  0A84               	incf	4,f
  2412     0A8E  0800               	movf	0,w
  2413     0A8F  0384               	decf	4,f
  2414     0A90  00A1               	movwf	clcd_print@str+1
  2415     0A91  30D1               	movlw	209
  2416     0A92  00A2               	movwf	clcd_print@addr
  2417     0A93  160A  118A  24E3  120A  158A  	fcall	_clcd_print
  2418                           
  2419                           ;washing_machine_function_def.c: 56:     }
  2420     0A98  2B1A               	goto	l223
  2421     0A99                     l3840:
  2422     0A99  300A               	movlw	10
  2423     0A9A  066C               	xorwf	_program_no,w
  2424     0A9B  1D03               	btfss	3,2
  2425     0A9C  2A9E               	goto	u5061
  2426     0A9D  2A9F               	goto	u5060
  2427     0A9E                     u5061:
  2428     0A9E  2ADB               	goto	l3844
  2429     0A9F                     u5060:
  2430     0A9F                     l3842:
  2431                           
  2432                           ;washing_machine_function_def.c: 58:       clcd_print(washing_program[program_no],(0xC0 
      +                          + 1));
  2433     0A9F  086C               	movf	_program_no,w
  2434     0AA0  00A5               	movwf	??_washing_program_
  2435     0AA1  0725               	addwf	??_washing_program_,w
  2436     0AA2  3EA0               	addlw	(low (_washing_program| 0))& (0+255)
  2437     0AA3  0084               	movwf	4
  2438     0AA4  1383               	bcf	3,7	;select IRP bank1
  2439     0AA5  0800               	movf	0,w
  2440     0AA6  00A0               	movwf	clcd_print@str
  2441     0AA7  0A84               	incf	4,f
  2442     0AA8  0800               	movf	0,w
  2443     0AA9  0384               	decf	4,f
  2444     0AAA  00A1               	movwf	clcd_print@str+1
  2445     0AAB  30C1               	movlw	193
  2446     0AAC  00A2               	movwf	clcd_print@addr
  2447     0AAD  160A  118A  24E3  120A  158A  	fcall	_clcd_print
  2448                           
  2449                           ;washing_machine_function_def.c: 59:       clcd_print(washing_program[program_no+1],(0x9
      +                          0 + 1));
  2450     0AB2  1283               	bcf	3,5	;RP0=0, select bank0
  2451     0AB3  1303               	bcf	3,6	;RP1=0, select bank0
  2452     0AB4  086C               	movf	_program_no,w
  2453     0AB5  00A5               	movwf	??_washing_program_
  2454     0AB6  0725               	addwf	??_washing_program_,w
  2455     0AB7  3EA2               	addlw	(low ((_washing_program| 0+2)))& (0+255)
  2456     0AB8  0084               	movwf	4
  2457     0AB9  1383               	bcf	3,7	;select IRP bank1
  2458     0ABA  0800               	movf	0,w
  2459     0ABB  00A0               	movwf	clcd_print@str
  2460     0ABC  0A84               	incf	4,f
  2461     0ABD  0800               	movf	0,w
  2462     0ABE  0384               	decf	4,f
  2463     0ABF  00A1               	movwf	clcd_print@str+1
  2464     0AC0  3091               	movlw	145
  2465     0AC1  00A2               	movwf	clcd_print@addr
  2466     0AC2  160A  118A  24E3  120A  158A  	fcall	_clcd_print
  2467                           
  2468                           ;washing_machine_function_def.c: 60:       clcd_print(washing_program[0],(0xD0 + 1));
  2469     0AC7  1683               	bsf	3,5	;RP0=1, select bank1
  2470     0AC8  1303               	bcf	3,6	;RP1=0, select bank1
  2471     0AC9  0820               	movf	_washing_program^(0+128),w
  2472     0ACA  1283               	bcf	3,5	;RP0=0, select bank0
  2473     0ACB  1303               	bcf	3,6	;RP1=0, select bank0
  2474     0ACC  00A0               	movwf	clcd_print@str
  2475     0ACD  1683               	bsf	3,5	;RP0=1, select bank1
  2476     0ACE  1303               	bcf	3,6	;RP1=0, select bank1
  2477     0ACF  0821               	movf	(_washing_program+1)^(0+128),w
  2478     0AD0  1283               	bcf	3,5	;RP0=0, select bank0
  2479     0AD1  1303               	bcf	3,6	;RP1=0, select bank0
  2480     0AD2  00A1               	movwf	clcd_print@str+1
  2481     0AD3  30D1               	movlw	209
  2482     0AD4  00A2               	movwf	clcd_print@addr
  2483     0AD5  160A  118A  24E3  120A  158A  	fcall	_clcd_print
  2484                           
  2485                           ;washing_machine_function_def.c: 61:     }
  2486     0ADA  2B1A               	goto	l223
  2487     0ADB                     l3844:
  2488     0ADB  300B               	movlw	11
  2489     0ADC  066C               	xorwf	_program_no,w
  2490     0ADD  1D03               	btfss	3,2
  2491     0ADE  2AE0               	goto	u5071
  2492     0ADF  2AE1               	goto	u5070
  2493     0AE0                     u5071:
  2494     0AE0  2B1A               	goto	l223
  2495     0AE1                     u5070:
  2496     0AE1                     l3846:
  2497                           
  2498                           ;washing_machine_function_def.c: 63:       clcd_print(washing_program[program_no],(0xC0 
      +                          + 1));
  2499     0AE1  086C               	movf	_program_no,w
  2500     0AE2  00A5               	movwf	??_washing_program_
  2501     0AE3  0725               	addwf	??_washing_program_,w
  2502     0AE4  3EA0               	addlw	(low (_washing_program| 0))& (0+255)
  2503     0AE5  0084               	movwf	4
  2504     0AE6  1383               	bcf	3,7	;select IRP bank1
  2505     0AE7  0800               	movf	0,w
  2506     0AE8  00A0               	movwf	clcd_print@str
  2507     0AE9  0A84               	incf	4,f
  2508     0AEA  0800               	movf	0,w
  2509     0AEB  0384               	decf	4,f
  2510     0AEC  00A1               	movwf	clcd_print@str+1
  2511     0AED  30C1               	movlw	193
  2512     0AEE  00A2               	movwf	clcd_print@addr
  2513     0AEF  160A  118A  24E3  120A  158A  	fcall	_clcd_print
  2514                           
  2515                           ;washing_machine_function_def.c: 64:       clcd_print(washing_program[0],(0x90 + 1));
  2516     0AF4  1683               	bsf	3,5	;RP0=1, select bank1
  2517     0AF5  1303               	bcf	3,6	;RP1=0, select bank1
  2518     0AF6  0820               	movf	_washing_program^(0+128),w
  2519     0AF7  1283               	bcf	3,5	;RP0=0, select bank0
  2520     0AF8  1303               	bcf	3,6	;RP1=0, select bank0
  2521     0AF9  00A0               	movwf	clcd_print@str
  2522     0AFA  1683               	bsf	3,5	;RP0=1, select bank1
  2523     0AFB  1303               	bcf	3,6	;RP1=0, select bank1
  2524     0AFC  0821               	movf	(_washing_program+1)^(0+128),w
  2525     0AFD  1283               	bcf	3,5	;RP0=0, select bank0
  2526     0AFE  1303               	bcf	3,6	;RP1=0, select bank0
  2527     0AFF  00A1               	movwf	clcd_print@str+1
  2528     0B00  3091               	movlw	145
  2529     0B01  00A2               	movwf	clcd_print@addr
  2530     0B02  160A  118A  24E3  120A  158A  	fcall	_clcd_print
  2531                           
  2532                           ;washing_machine_function_def.c: 65:       clcd_print(washing_program[1],(0xD0 + 1));
  2533     0B07  1683               	bsf	3,5	;RP0=1, select bank1
  2534     0B08  1303               	bcf	3,6	;RP1=0, select bank1
  2535     0B09  0822               	movf	(low ((_washing_program| 0+2)))^(0+128),w
  2536     0B0A  1283               	bcf	3,5	;RP0=0, select bank0
  2537     0B0B  1303               	bcf	3,6	;RP1=0, select bank0
  2538     0B0C  00A0               	movwf	clcd_print@str
  2539     0B0D  1683               	bsf	3,5	;RP0=1, select bank1
  2540     0B0E  1303               	bcf	3,6	;RP1=0, select bank1
  2541     0B0F  0823               	movf	((low ((_washing_program| 0+2))+1))^(0+128),w
  2542     0B10  1283               	bcf	3,5	;RP0=0, select bank0
  2543     0B11  1303               	bcf	3,6	;RP1=0, select bank0
  2544     0B12  00A1               	movwf	clcd_print@str+1
  2545     0B13  30D1               	movlw	209
  2546     0B14  00A2               	movwf	clcd_print@addr
  2547     0B15  160A  118A  24E3  120A  158A  	fcall	_clcd_print
  2548     0B1A                     l223:
  2549     0B1A  0008               	return
  2550     0B1B                     __end_of_washing_program_:
  2551                           
  2552                           	psect	text3
  2553     0045                     __ptext3:	
  2554 ;; *************** function _start *****************
  2555 ;; Defined at:
  2556 ;;		line 268 in file "washing_machine_function_def.c"
  2557 ;; Parameters:    Size  Location     Type
  2558 ;;  key             1    wreg     unsigned char 
  2559 ;; Auto vars:     Size  Location     Type
  2560 ;;  key             1   68[BANK0 ] unsigned char 
  2561 ;; Return value:  Size  Location     Type
  2562 ;;                  1    wreg      void 
  2563 ;; Registers used:
  2564 ;;		wreg, fsr0l, fsr0h, status,2, status,0, btemp+1, pclath, cstack
  2565 ;; Tracked objects:
  2566 ;;		On entry : 0/0
  2567 ;;		On exit  : 0/0
  2568 ;;		Unchanged: 0/0
  2569 ;; Data sizes:     COMMON   BANK0   BANK1   BANK3   BANK2
  2570 ;;      Params:         0       0       0       0       0
  2571 ;;      Locals:         0       1       0       0       0
  2572 ;;      Temps:          0      12       0       0       0
  2573 ;;      Totals:         0      13       0       0       0
  2574 ;;Total ram usage:       13 bytes
  2575 ;; Hardware stack levels used: 1
  2576 ;; Hardware stack levels required when called: 4
  2577 ;; This function calls:
  2578 ;;		___awdiv
  2579 ;;		___awmod
  2580 ;;		___bmul
  2581 ;;		___flge
  2582 ;;		___flmul
  2583 ;;		___flsub
  2584 ;;		___fltol
  2585 ;;		___xxtofl
  2586 ;;		_clcd_print
  2587 ;;		_clcd_putch
  2588 ;;		_clear_clcd
  2589 ;;		_door_status_check
  2590 ;; This function is called by:
  2591 ;;		_main
  2592 ;; This function uses a non-reentrant model
  2593 ;;
  2594                           
  2595     0045                     _start:	
  2596                           ;psect for function _start
  2597                           
  2598                           
  2599                           ;incstack = 0
  2600                           ; Regs used in _start: [wreg-fsr0h+status,2+status,0+btemp+1+pclath+cstack]
  2601                           ;start@key stored from wreg
  2602     0045  1283               	bcf	3,5	;RP0=0, select bank0
  2603     0046  1303               	bcf	3,6	;RP1=0, select bank0
  2604     0047  00E4               	movwf	start@key
  2605     0048                     l4136:
  2606                           
  2607                           ;washing_machine_function_def.c: 269:     door_status_check();
  2608     0048  160A  118A  2680  120A  118A  	fcall	_door_status_check
  2609     004D                     l4138:
  2610                           
  2611                           ;washing_machine_function_def.c: 270:     if(reset_flag == 0x33){
  2612     004D  3033               	movlw	51
  2613     004E  1683               	bsf	3,5	;RP0=1, select bank1
  2614     004F  1303               	bcf	3,6	;RP1=0, select bank1
  2615     0050  0642               	xorwf	_reset_flag^(0+128),w
  2616     0051  0443               	iorwf	(_reset_flag+1)^(0+128),w
  2617     0052  1D03               	btfss	3,2
  2618     0053  2855               	goto	u5411
  2619     0054  2856               	goto	u5410
  2620     0055                     u5411:
  2621     0055  2A1B               	goto	l4184
  2622     0056                     u5410:
  2623     0056                     l4140:
  2624                           
  2625                           ;washing_machine_function_def.c: 271:         clear_clcd();
  2626     0056  160A  118A  2439  120A  118A  	fcall	_clear_clcd
  2627     005B                     l4142:
  2628                           
  2629                           ;washing_machine_function_def.c: 272:         clcd_print("Prog:",(0xC0 + 0));
  2630     005B  303C               	movlw	low (STR_28| (0+32768))
  2631     005C  1283               	bcf	3,5	;RP0=0, select bank0
  2632     005D  1303               	bcf	3,6	;RP1=0, select bank0
  2633     005E  00A0               	movwf	clcd_print@str
  2634     005F  3091               	movlw	high (STR_28| (0+32768))
  2635     0060  00A1               	movwf	clcd_print@str+1
  2636     0061  30C0               	movlw	192
  2637     0062  00A2               	movwf	clcd_print@addr
  2638     0063  160A  118A  24E3  120A  118A  	fcall	_clcd_print
  2639     0068                     l4144:
  2640                           
  2641                           ;washing_machine_function_def.c: 273:         clcd_print(washing_program[program_no],(0x
      +                          C0 + 6));
  2642     0068  1283               	bcf	3,5	;RP0=0, select bank0
  2643     0069  1303               	bcf	3,6	;RP1=0, select bank0
  2644     006A  086C               	movf	_program_no,w
  2645     006B  00D8               	movwf	??_start
  2646     006C  0758               	addwf	??_start,w
  2647     006D  3EA0               	addlw	(low (_washing_program| 0))& (0+255)
  2648     006E  0084               	movwf	4
  2649     006F  1383               	bcf	3,7	;select IRP bank1
  2650     0070  0800               	movf	0,w
  2651     0071  00A0               	movwf	clcd_print@str
  2652     0072  0A84               	incf	4,f
  2653     0073  0800               	movf	0,w
  2654     0074  0384               	decf	4,f
  2655     0075  00A1               	movwf	clcd_print@str+1
  2656     0076  30C6               	movlw	198
  2657     0077  00A2               	movwf	clcd_print@addr
  2658     0078  160A  118A  24E3  120A  118A  	fcall	_clcd_print
  2659     007D                     l4146:
  2660                           
  2661                           ;washing_machine_function_def.c: 274:         clcd_print("TIME:",(0x90 + 0));
  2662     007D  3036               	movlw	low (STR_29| (0+32768))
  2663     007E  1283               	bcf	3,5	;RP0=0, select bank0
  2664     007F  1303               	bcf	3,6	;RP1=0, select bank0
  2665     0080  00A0               	movwf	clcd_print@str
  2666     0081  3091               	movlw	high (STR_29| (0+32768))
  2667     0082  00A1               	movwf	clcd_print@str+1
  2668     0083  3090               	movlw	144
  2669     0084  00A2               	movwf	clcd_print@addr
  2670     0085  160A  118A  24E3  120A  118A  	fcall	_clcd_print
  2671     008A                     l4148:
  2672                           
  2673                           ;washing_machine_function_def.c: 275:         clcd_putch(min/10 +'0',(0x90 + 6));
  2674     008A  3096               	movlw	150
  2675     008B  00F8               	movwf	clcd_putch@addr
  2676     008C  300A               	movlw	10
  2677     008D  00F2               	movwf	___awdiv@divisor
  2678     008E  3000               	movlw	0
  2679     008F  00F3               	movwf	___awdiv@divisor+1
  2680     0090  1283               	bcf	3,5	;RP0=0, select bank0
  2681     0091  1303               	bcf	3,6	;RP1=0, select bank0
  2682     0092  086D               	movf	_min,w
  2683     0093  00D8               	movwf	??_start
  2684     0094  01D9               	clrf	??_start+1
  2685     0095  0858               	movf	??_start,w
  2686     0096  00F4               	movwf	___awdiv@dividend
  2687     0097  0859               	movf	??_start+1,w
  2688     0098  00F5               	movwf	___awdiv@dividend+1
  2689     0099  160A  118A  261B  120A  118A  	fcall	___awdiv
  2690     009E  0872               	movf	?___awdiv,w
  2691     009F  3E30               	addlw	48
  2692     00A0  160A  118A  2470  120A  118A  	fcall	_clcd_putch
  2693     00A5                     l4150:
  2694                           
  2695                           ;washing_machine_function_def.c: 276:         clcd_putch(min%10 + '0',(0x90 + 7));
  2696     00A5  3097               	movlw	151
  2697     00A6  00F8               	movwf	clcd_putch@addr
  2698     00A7  300A               	movlw	10
  2699     00A8  00F2               	movwf	___awmod@divisor
  2700     00A9  3000               	movlw	0
  2701     00AA  00F3               	movwf	___awmod@divisor+1
  2702     00AB  1283               	bcf	3,5	;RP0=0, select bank0
  2703     00AC  1303               	bcf	3,6	;RP1=0, select bank0
  2704     00AD  086D               	movf	_min,w
  2705     00AE  00D8               	movwf	??_start
  2706     00AF  01D9               	clrf	??_start+1
  2707     00B0  0858               	movf	??_start,w
  2708     00B1  00F4               	movwf	___awmod@dividend
  2709     00B2  0859               	movf	??_start+1,w
  2710     00B3  00F5               	movwf	___awmod@dividend+1
  2711     00B4  160A  118A  25C4  120A  118A  	fcall	___awmod
  2712     00B9  0872               	movf	?___awmod,w
  2713     00BA  3E30               	addlw	48
  2714     00BB  160A  118A  2470  120A  118A  	fcall	_clcd_putch
  2715     00C0                     l4152:
  2716                           
  2717                           ;washing_machine_function_def.c: 277:         clcd_putch(':',(0x90 + 8));
  2718     00C0  3098               	movlw	152
  2719     00C1  00F8               	movwf	clcd_putch@addr
  2720     00C2  303A               	movlw	58
  2721     00C3  160A  118A  2470  120A  118A  	fcall	_clcd_putch
  2722     00C8                     l4154:
  2723                           
  2724                           ;washing_machine_function_def.c: 278:         clcd_putch(sec/10 +'0',(0x90 + 9));
  2725     00C8  3099               	movlw	153
  2726     00C9  00F8               	movwf	clcd_putch@addr
  2727     00CA  300A               	movlw	10
  2728     00CB  00F2               	movwf	___awdiv@divisor
  2729     00CC  3000               	movlw	0
  2730     00CD  00F3               	movwf	___awdiv@divisor+1
  2731     00CE  1283               	bcf	3,5	;RP0=0, select bank0
  2732     00CF  1303               	bcf	3,6	;RP1=0, select bank0
  2733     00D0  086E               	movf	_sec,w
  2734     00D1  00D8               	movwf	??_start
  2735     00D2  01D9               	clrf	??_start+1
  2736     00D3  0858               	movf	??_start,w
  2737     00D4  00F4               	movwf	___awdiv@dividend
  2738     00D5  0859               	movf	??_start+1,w
  2739     00D6  00F5               	movwf	___awdiv@dividend+1
  2740     00D7  160A  118A  261B  120A  118A  	fcall	___awdiv
  2741     00DC  0872               	movf	?___awdiv,w
  2742     00DD  3E30               	addlw	48
  2743     00DE  160A  118A  2470  120A  118A  	fcall	_clcd_putch
  2744     00E3                     l4156:
  2745                           
  2746                           ;washing_machine_function_def.c: 279:         clcd_putch(sec%10 + '0',(0x90 + 10));
  2747     00E3  309A               	movlw	154
  2748     00E4  00F8               	movwf	clcd_putch@addr
  2749     00E5  300A               	movlw	10
  2750     00E6  00F2               	movwf	___awmod@divisor
  2751     00E7  3000               	movlw	0
  2752     00E8  00F3               	movwf	___awmod@divisor+1
  2753     00E9  1283               	bcf	3,5	;RP0=0, select bank0
  2754     00EA  1303               	bcf	3,6	;RP1=0, select bank0
  2755     00EB  086E               	movf	_sec,w
  2756     00EC  00D8               	movwf	??_start
  2757     00ED  01D9               	clrf	??_start+1
  2758     00EE  0858               	movf	??_start,w
  2759     00EF  00F4               	movwf	___awmod@dividend
  2760     00F0  0859               	movf	??_start+1,w
  2761     00F1  00F5               	movwf	___awmod@dividend+1
  2762     00F2  160A  118A  25C4  120A  118A  	fcall	___awmod
  2763     00F7  0872               	movf	?___awmod,w
  2764     00F8  3E30               	addlw	48
  2765     00F9  160A  118A  2470  120A  118A  	fcall	_clcd_putch
  2766     00FE                     l4158:
  2767                           
  2768                           ;washing_machine_function_def.c: 280:         reset_flag = 0xFF;
  2769     00FE  30FF               	movlw	255
  2770     00FF  1683               	bsf	3,5	;RP0=1, select bank1
  2771     0100  1303               	bcf	3,6	;RP1=0, select bank1
  2772     0101  00C2               	movwf	_reset_flag^(0+128)
  2773     0102  3000               	movlw	0
  2774     0103  00C3               	movwf	(_reset_flag^(0+128)+1)
  2775     0104                     l4160:
  2776                           
  2777                           ;washing_machine_function_def.c: 282:         _delay((unsigned long)((2000)*(20000000/40
      +                          00.0)));
  2778     0104  3033               	movlw	51
  2779     0105  1283               	bcf	3,5	;RP0=0, select bank0
  2780     0106  1303               	bcf	3,6	;RP1=0, select bank0
  2781     0107  00DA               	movwf	??_start+2
  2782     0108  30BB               	movlw	187
  2783     0109  00D9               	movwf	??_start+1
  2784     010A  30DF               	movlw	223
  2785     010B  00D8               	movwf	??_start
  2786     010C                     u5637:
  2787     010C  0BD8               	decfsz	??_start,f
  2788     010D  290C               	goto	u5637
  2789     010E  0BD9               	decfsz	??_start+1,f
  2790     010F  290C               	goto	u5637
  2791     0110  0BDA               	decfsz	??_start+2,f
  2792     0111  290C               	goto	u5637
  2793     0112                     l4162:
  2794                           
  2795                           ;washing_machine_function_def.c: 283:         clear_clcd();
  2796     0112  160A  118A  2439  120A  118A  	fcall	_clear_clcd
  2797     0117                     l4164:
  2798                           
  2799                           ;washing_machine_function_def.c: 285:         clcd_print("FUNCTION: ",(0x80 + 0));
  2800     0117  309E               	movlw	low (STR_30| (0+32768))
  2801     0118  1283               	bcf	3,5	;RP0=0, select bank0
  2802     0119  1303               	bcf	3,6	;RP1=0, select bank0
  2803     011A  00A0               	movwf	clcd_print@str
  2804     011B  3090               	movlw	high (STR_30| (0+32768))
  2805     011C  00A1               	movwf	clcd_print@str+1
  2806     011D  3080               	movlw	128
  2807     011E  00A2               	movwf	clcd_print@addr
  2808     011F  160A  118A  24E3  120A  118A  	fcall	_clcd_print
  2809     0124                     l4166:
  2810                           
  2811                           ;washing_machine_function_def.c: 286:         clcd_print("Time",(0xC0 + 0));
  2812     0124  305E               	movlw	low (STR_31| (0+32768))
  2813     0125  1283               	bcf	3,5	;RP0=0, select bank0
  2814     0126  1303               	bcf	3,6	;RP1=0, select bank0
  2815     0127  00A0               	movwf	clcd_print@str
  2816     0128  3091               	movlw	high (STR_31| (0+32768))
  2817     0129  00A1               	movwf	clcd_print@str+1
  2818     012A  30C0               	movlw	192
  2819     012B  00A2               	movwf	clcd_print@addr
  2820     012C  160A  118A  24E3  120A  118A  	fcall	_clcd_print
  2821     0131                     l4168:
  2822                           
  2823                           ;washing_machine_function_def.c: 287:         clcd_print("SW5: START",(0x90 + 0));
  2824     0131  30D5               	movlw	low (STR_5| (0+32768))
  2825     0132  1283               	bcf	3,5	;RP0=0, select bank0
  2826     0133  1303               	bcf	3,6	;RP1=0, select bank0
  2827     0134  00A0               	movwf	clcd_print@str
  2828     0135  3090               	movlw	high (STR_5| (0+32768))
  2829     0136  00A1               	movwf	clcd_print@str+1
  2830     0137  3090               	movlw	144
  2831     0138  00A2               	movwf	clcd_print@addr
  2832     0139  160A  118A  24E3  120A  118A  	fcall	_clcd_print
  2833     013E                     l4170:
  2834                           
  2835                           ;washing_machine_function_def.c: 288:         clcd_print("SW6: PAUSE",(0xD0 + 0));
  2836     013E  30A9               	movlw	low (STR_33| (0+32768))
  2837     013F  1283               	bcf	3,5	;RP0=0, select bank0
  2838     0140  1303               	bcf	3,6	;RP1=0, select bank0
  2839     0141  00A0               	movwf	clcd_print@str
  2840     0142  3090               	movlw	high (STR_33| (0+32768))
  2841     0143  00A1               	movwf	clcd_print@str+1
  2842     0144  30D0               	movlw	208
  2843     0145  00A2               	movwf	clcd_print@addr
  2844     0146  160A  118A  24E3  120A  118A  	fcall	_clcd_print
  2845     014B                     l4172:
  2846                           
  2847                           ;washing_machine_function_def.c: 289:         total_time = time = min*60+sec;
  2848     014B  303C               	movlw	60
  2849     014C  00F2               	movwf	___bmul@multiplicand
  2850     014D  1283               	bcf	3,5	;RP0=0, select bank0
  2851     014E  1303               	bcf	3,6	;RP1=0, select bank0
  2852     014F  086D               	movf	_min,w
  2853     0150  160A  118A  244A  120A  118A  	fcall	___bmul
  2854     0155  1283               	bcf	3,5	;RP0=0, select bank0
  2855     0156  1303               	bcf	3,6	;RP1=0, select bank0
  2856     0157  076E               	addwf	_sec,w
  2857     0158  00E8               	movwf	_time
  2858     0159  00EA               	movwf	_total_time
  2859     015A                     l4174:
  2860                           
  2861                           ;washing_machine_function_def.c: 290:         wash_time = (int) total_time*0.46;
  2862     015A  086A               	movf	_total_time,w
  2863     015B  00D8               	movwf	??_start
  2864     015C  01D9               	clrf	??_start+1
  2865     015D  01DA               	clrf	??_start+2
  2866     015E  01DB               	clrf	??_start+3
  2867     015F  085B               	movf	??_start+3,w
  2868     0160  00F5               	movwf	___xxtofl@val+3
  2869     0161  085A               	movf	??_start+2,w
  2870     0162  00F4               	movwf	___xxtofl@val+2
  2871     0163  0859               	movf	??_start+1,w
  2872     0164  00F3               	movwf	___xxtofl@val+1
  2873     0165  0858               	movf	??_start,w
  2874     0166  00F2               	movwf	___xxtofl@val
  2875     0167  3001               	movlw	1
  2876     0168  120A  158A  2150  120A  118A  	fcall	___xxtofl
  2877     016D  0875               	movf	?___xxtofl+3,w
  2878     016E  1283               	bcf	3,5	;RP0=0, select bank0
  2879     016F  1303               	bcf	3,6	;RP1=0, select bank0
  2880     0170  00B1               	movwf	___flmul@a+3
  2881     0171  0874               	movf	?___xxtofl+2,w
  2882     0172  00B0               	movwf	___flmul@a+2
  2883     0173  0873               	movf	?___xxtofl+1,w
  2884     0174  00AF               	movwf	___flmul@a+1
  2885     0175  0872               	movf	?___xxtofl,w
  2886     0176  00AE               	movwf	___flmul@a
  2887     0177  303E               	movlw	62
  2888     0178  00AD               	movwf	___flmul@b+3
  2889     0179  30EB               	movlw	235
  2890     017A  00AC               	movwf	___flmul@b+2
  2891     017B  3085               	movlw	133
  2892     017C  00AB               	movwf	___flmul@b+1
  2893     017D  301F               	movlw	31
  2894     017E  00AA               	movwf	___flmul@b
  2895     017F  120A  118A  2422  120A  118A  	fcall	___flmul
  2896     0184  1283               	bcf	3,5	;RP0=0, select bank0
  2897     0185  1303               	bcf	3,6	;RP1=0, select bank0
  2898     0186  082D               	movf	?___flmul+3,w
  2899     0187  00C7               	movwf	___fltol@f1+3
  2900     0188  082C               	movf	?___flmul+2,w
  2901     0189  00C6               	movwf	___fltol@f1+2
  2902     018A  082B               	movf	?___flmul+1,w
  2903     018B  00C5               	movwf	___fltol@f1+1
  2904     018C  082A               	movf	?___flmul,w
  2905     018D  00C4               	movwf	___fltol@f1
  2906     018E  120A  118A  2764  120A  118A  	fcall	___fltol
  2907     0193  1283               	bcf	3,5	;RP0=0, select bank0
  2908     0194  1303               	bcf	3,6	;RP1=0, select bank0
  2909     0195  0844               	movf	?___fltol,w
  2910     0196  00E9               	movwf	_wash_time
  2911     0197                     l4176:
  2912                           
  2913                           ;washing_machine_function_def.c: 291:         rinse_time = (int) total_time*0.12;
  2914     0197  086A               	movf	_total_time,w
  2915     0198  00D8               	movwf	??_start
  2916     0199  01D9               	clrf	??_start+1
  2917     019A  01DA               	clrf	??_start+2
  2918     019B  01DB               	clrf	??_start+3
  2919     019C  085B               	movf	??_start+3,w
  2920     019D  00F5               	movwf	___xxtofl@val+3
  2921     019E  085A               	movf	??_start+2,w
  2922     019F  00F4               	movwf	___xxtofl@val+2
  2923     01A0  0859               	movf	??_start+1,w
  2924     01A1  00F3               	movwf	___xxtofl@val+1
  2925     01A2  0858               	movf	??_start,w
  2926     01A3  00F2               	movwf	___xxtofl@val
  2927     01A4  3001               	movlw	1
  2928     01A5  120A  158A  2150  120A  118A  	fcall	___xxtofl
  2929     01AA  0875               	movf	?___xxtofl+3,w
  2930     01AB  1283               	bcf	3,5	;RP0=0, select bank0
  2931     01AC  1303               	bcf	3,6	;RP1=0, select bank0
  2932     01AD  00B1               	movwf	___flmul@a+3
  2933     01AE  0874               	movf	?___xxtofl+2,w
  2934     01AF  00B0               	movwf	___flmul@a+2
  2935     01B0  0873               	movf	?___xxtofl+1,w
  2936     01B1  00AF               	movwf	___flmul@a+1
  2937     01B2  0872               	movf	?___xxtofl,w
  2938     01B3  00AE               	movwf	___flmul@a
  2939     01B4  303D               	movlw	61
  2940     01B5  00AD               	movwf	___flmul@b+3
  2941     01B6  30F5               	movlw	245
  2942     01B7  00AC               	movwf	___flmul@b+2
  2943     01B8  30C2               	movlw	194
  2944     01B9  00AB               	movwf	___flmul@b+1
  2945     01BA  308F               	movlw	143
  2946     01BB  00AA               	movwf	___flmul@b
  2947     01BC  120A  118A  2422  120A  118A  	fcall	___flmul
  2948     01C1  1283               	bcf	3,5	;RP0=0, select bank0
  2949     01C2  1303               	bcf	3,6	;RP1=0, select bank0
  2950     01C3  082D               	movf	?___flmul+3,w
  2951     01C4  00C7               	movwf	___fltol@f1+3
  2952     01C5  082C               	movf	?___flmul+2,w
  2953     01C6  00C6               	movwf	___fltol@f1+2
  2954     01C7  082B               	movf	?___flmul+1,w
  2955     01C8  00C5               	movwf	___fltol@f1+1
  2956     01C9  082A               	movf	?___flmul,w
  2957     01CA  00C4               	movwf	___fltol@f1
  2958     01CB  120A  118A  2764  120A  118A  	fcall	___fltol
  2959     01D0  1283               	bcf	3,5	;RP0=0, select bank0
  2960     01D1  1303               	bcf	3,6	;RP1=0, select bank0
  2961     01D2  0844               	movf	?___fltol,w
  2962     01D3  1683               	bsf	3,5	;RP0=1, select bank1
  2963     01D4  1303               	bcf	3,6	;RP1=0, select bank1
  2964     01D5  00CB               	movwf	_rinse_time^(0+128)
  2965     01D6                     l4178:
  2966                           
  2967                           ;washing_machine_function_def.c: 292:         spin_time = (int) total_time*0.42;
  2968     01D6  1283               	bcf	3,5	;RP0=0, select bank0
  2969     01D7  1303               	bcf	3,6	;RP1=0, select bank0
  2970     01D8  086A               	movf	_total_time,w
  2971     01D9  00D8               	movwf	??_start
  2972     01DA  01D9               	clrf	??_start+1
  2973     01DB  01DA               	clrf	??_start+2
  2974     01DC  01DB               	clrf	??_start+3
  2975     01DD  085B               	movf	??_start+3,w
  2976     01DE  00F5               	movwf	___xxtofl@val+3
  2977     01DF  085A               	movf	??_start+2,w
  2978     01E0  00F4               	movwf	___xxtofl@val+2
  2979     01E1  0859               	movf	??_start+1,w
  2980     01E2  00F3               	movwf	___xxtofl@val+1
  2981     01E3  0858               	movf	??_start,w
  2982     01E4  00F2               	movwf	___xxtofl@val
  2983     01E5  3001               	movlw	1
  2984     01E6  120A  158A  2150  120A  118A  	fcall	___xxtofl
  2985     01EB  0875               	movf	?___xxtofl+3,w
  2986     01EC  1283               	bcf	3,5	;RP0=0, select bank0
  2987     01ED  1303               	bcf	3,6	;RP1=0, select bank0
  2988     01EE  00B1               	movwf	___flmul@a+3
  2989     01EF  0874               	movf	?___xxtofl+2,w
  2990     01F0  00B0               	movwf	___flmul@a+2
  2991     01F1  0873               	movf	?___xxtofl+1,w
  2992     01F2  00AF               	movwf	___flmul@a+1
  2993     01F3  0872               	movf	?___xxtofl,w
  2994     01F4  00AE               	movwf	___flmul@a
  2995     01F5  303E               	movlw	62
  2996     01F6  00AD               	movwf	___flmul@b+3
  2997     01F7  30D7               	movlw	215
  2998     01F8  00AC               	movwf	___flmul@b+2
  2999     01F9  300A               	movlw	10
  3000     01FA  00AB               	movwf	___flmul@b+1
  3001     01FB  303D               	movlw	61
  3002     01FC  00AA               	movwf	___flmul@b
  3003     01FD  120A  118A  2422  120A  118A  	fcall	___flmul
  3004     0202  1283               	bcf	3,5	;RP0=0, select bank0
  3005     0203  1303               	bcf	3,6	;RP1=0, select bank0
  3006     0204  082D               	movf	?___flmul+3,w
  3007     0205  00C7               	movwf	___fltol@f1+3
  3008     0206  082C               	movf	?___flmul+2,w
  3009     0207  00C6               	movwf	___fltol@f1+2
  3010     0208  082B               	movf	?___flmul+1,w
  3011     0209  00C5               	movwf	___fltol@f1+1
  3012     020A  082A               	movf	?___flmul,w
  3013     020B  00C4               	movwf	___fltol@f1
  3014     020C  120A  118A  2764  120A  118A  	fcall	___fltol
  3015     0211  1283               	bcf	3,5	;RP0=0, select bank0
  3016     0212  1303               	bcf	3,6	;RP1=0, select bank0
  3017     0213  0844               	movf	?___fltol,w
  3018     0214  1683               	bsf	3,5	;RP0=1, select bank1
  3019     0215  1303               	bcf	3,6	;RP1=0, select bank1
  3020     0216  00CA               	movwf	_spin_time^(0+128)
  3021     0217                     l4180:
  3022                           
  3023                           ;washing_machine_function_def.c: 293:         TMR2ON = 1;
  3024     0217  1283               	bcf	3,5	;RP0=0, select bank0
  3025     0218  1303               	bcf	3,6	;RP1=0, select bank0
  3026     0219  1512               	bsf	18,2	;volatile
  3027     021A                     l4182:
  3028                           
  3029                           ;washing_machine_function_def.c: 294:         RC2 = 1;
  3030     021A  1507               	bsf	7,2	;volatile
  3031     021B                     l4184:
  3032                           
  3033                           ;washing_machine_function_def.c: 297:     if( key == 0x1F ){
  3034     021B  301F               	movlw	31
  3035     021C  1283               	bcf	3,5	;RP0=0, select bank0
  3036     021D  0664               	xorwf	start@key,w
  3037     021E  1D03               	btfss	3,2
  3038     021F  2A21               	goto	u5421
  3039     0220  2A22               	goto	u5420
  3040     0221                     u5421:
  3041     0221  2A28               	goto	l4190
  3042     0222                     u5420:
  3043     0222                     l4186:
  3044                           
  3045                           ;washing_machine_function_def.c: 298:             TMR2ON = 0;
  3046     0222  1112               	bcf	18,2	;volatile
  3047                           
  3048                           ;washing_machine_function_def.c: 299:             RC2 = 0;
  3049     0223  1107               	bcf	7,2	;volatile
  3050     0224                     l4188:
  3051                           
  3052                           ;washing_machine_function_def.c: 300:             operational_state = 0x44;
  3053     0224  3044               	movlw	68
  3054     0225  00F9               	movwf	_operational_state
  3055     0226  3000               	movlw	0
  3056     0227  00FA               	movwf	_operational_state+1
  3057     0228                     l4190:
  3058                           
  3059                           ;washing_machine_function_def.c: 304:     total_time= min*60+sec;
  3060     0228  303C               	movlw	60
  3061     0229  00F2               	movwf	___bmul@multiplicand
  3062     022A  086D               	movf	_min,w
  3063     022B  160A  118A  244A  120A  118A  	fcall	___bmul
  3064     0230  1283               	bcf	3,5	;RP0=0, select bank0
  3065     0231  1303               	bcf	3,6	;RP1=0, select bank0
  3066     0232  076E               	addwf	_sec,w
  3067     0233  00EA               	movwf	_total_time
  3068     0234                     l4192:
  3069                           
  3070                           ;washing_machine_function_def.c: 305:     if(program_no<=7){
  3071     0234  3008               	movlw	8
  3072     0235  026C               	subwf	_program_no,w
  3073     0236  1803               	skipnc
  3074     0237  2A39               	goto	u5431
  3075     0238  2A3A               	goto	u5430
  3076     0239                     u5431:
  3077     0239  2A9B               	goto	l4204
  3078     023A                     u5430:
  3079     023A                     l4194:
  3080                           
  3081                           ;washing_machine_function_def.c: 306:         if(total_time >= (time - wash_time)){
  3082     023A  0868               	movf	_time,w
  3083     023B  00D8               	movwf	??_start
  3084     023C  01D9               	clrf	??_start+1
  3085     023D  0859               	movf	??_start+1,w
  3086     023E  00DB               	movwf	??_start+3
  3087     023F  0869               	movf	_wash_time,w
  3088     0240  0258               	subwf	??_start,w
  3089     0241  00DA               	movwf	??_start+2
  3090     0242  1C03               	skipc
  3091     0243  03DB               	decf	??_start+3,f
  3092     0244  085B               	movf	??_start+3,w
  3093     0245  3A80               	xorlw	128
  3094     0246  3C80               	sublw	128
  3095     0247  1D03               	skipz
  3096     0248  2A4B               	goto	u5445
  3097     0249  085A               	movf	??_start+2,w
  3098     024A  026A               	subwf	_total_time,w
  3099     024B                     u5445:
  3100     024B  1C03               	skipc
  3101     024C  2A4E               	goto	u5441
  3102     024D  2A4F               	goto	u5440
  3103     024E                     u5441:
  3104     024E  2A5D               	goto	l4198
  3105     024F                     u5440:
  3106     024F                     l4196:
  3107                           
  3108                           ;washing_machine_function_def.c: 307:             clcd_print("wash",(0x80 + 10));
  3109     024F  30C5               	movlw	low ((STR_11+6)| (0+32768))
  3110     0250  1283               	bcf	3,5	;RP0=0, select bank0
  3111     0251  1303               	bcf	3,6	;RP1=0, select bank0
  3112     0252  00A0               	movwf	clcd_print@str
  3113     0253  3090               	movlw	high ((STR_11+6)| (0+32768))
  3114     0254  00A1               	movwf	clcd_print@str+1
  3115     0255  308A               	movlw	138
  3116     0256  00A2               	movwf	clcd_print@addr
  3117     0257  160A  118A  24E3  120A  118A  	fcall	_clcd_print
  3118                           
  3119                           ;washing_machine_function_def.c: 308:         }
  3120     025C  2B60               	goto	l4218
  3121     025D                     l4198:
  3122     025D  1283               	bcf	3,5	;RP0=0, select bank0
  3123     025E  1303               	bcf	3,6	;RP1=0, select bank0
  3124     025F  0868               	movf	_time,w
  3125     0260  00D8               	movwf	??_start
  3126     0261  01D9               	clrf	??_start+1
  3127     0262  0859               	movf	??_start+1,w
  3128     0263  00DB               	movwf	??_start+3
  3129     0264  0869               	movf	_wash_time,w
  3130     0265  0258               	subwf	??_start,w
  3131     0266  00DA               	movwf	??_start+2
  3132     0267  1C03               	skipc
  3133     0268  03DB               	decf	??_start+3,f
  3134     0269  085B               	movf	??_start+3,w
  3135     026A  00DD               	movwf	??_start+5
  3136     026B  1683               	bsf	3,5	;RP0=1, select bank1
  3137     026C  1303               	bcf	3,6	;RP1=0, select bank1
  3138     026D  084A               	movf	_spin_time^(0+128),w
  3139     026E  1283               	bcf	3,5	;RP0=0, select bank0
  3140     026F  1303               	bcf	3,6	;RP1=0, select bank0
  3141     0270  025A               	subwf	??_start+2,w
  3142     0271  00DC               	movwf	??_start+4
  3143     0272  1C03               	skipc
  3144     0273  03DD               	decf	??_start+5,f
  3145     0274  085D               	movf	??_start+5,w
  3146     0275  3A80               	xorlw	128
  3147     0276  3C80               	sublw	128
  3148     0277  1D03               	skipz
  3149     0278  2A7B               	goto	u5455
  3150     0279  085C               	movf	??_start+4,w
  3151     027A  026A               	subwf	_total_time,w
  3152     027B                     u5455:
  3153     027B  1C03               	skipc
  3154     027C  2A7E               	goto	u5451
  3155     027D  2A7F               	goto	u5450
  3156     027E                     u5451:
  3157     027E  2A8D               	goto	l4202
  3158     027F                     u5450:
  3159     027F                     l4200:
  3160                           
  3161                           ;washing_machine_function_def.c: 310:             clcd_print("rinse",(0x80 + 10));
  3162     027F  3042               	movlw	low (STR_35| (0+32768))
  3163     0280  1283               	bcf	3,5	;RP0=0, select bank0
  3164     0281  1303               	bcf	3,6	;RP1=0, select bank0
  3165     0282  00A0               	movwf	clcd_print@str
  3166     0283  3091               	movlw	high (STR_35| (0+32768))
  3167     0284  00A1               	movwf	clcd_print@str+1
  3168     0285  308A               	movlw	138
  3169     0286  00A2               	movwf	clcd_print@addr
  3170     0287  160A  118A  24E3  120A  118A  	fcall	_clcd_print
  3171                           
  3172                           ;washing_machine_function_def.c: 311:         }
  3173     028C  2B60               	goto	l4218
  3174     028D                     l4202:
  3175                           
  3176                           ;washing_machine_function_def.c: 313:             clcd_print("spin ",(0x80 + 10));
  3177     028D  3030               	movlw	low (STR_36| (0+32768))
  3178     028E  1283               	bcf	3,5	;RP0=0, select bank0
  3179     028F  1303               	bcf	3,6	;RP1=0, select bank0
  3180     0290  00A0               	movwf	clcd_print@str
  3181     0291  3091               	movlw	high (STR_36| (0+32768))
  3182     0292  00A1               	movwf	clcd_print@str+1
  3183     0293  308A               	movlw	138
  3184     0294  00A2               	movwf	clcd_print@addr
  3185     0295  160A  118A  24E3  120A  118A  	fcall	_clcd_print
  3186     029A  2B60               	goto	l4218
  3187     029B                     l4204:
  3188     029B  3008               	movlw	8
  3189     029C  066C               	xorwf	_program_no,w
  3190     029D  1D03               	btfss	3,2
  3191     029E  2AA0               	goto	u5461
  3192     029F  2AA1               	goto	u5460
  3193     02A0                     u5461:
  3194     02A0  2B43               	goto	l4212
  3195     02A1                     u5460:
  3196     02A1                     l4206:
  3197                           
  3198                           ;washing_machine_function_def.c: 317:         if(total_time >= (time - (0.40*time))){
  3199     02A1  086A               	movf	_total_time,w
  3200     02A2  00D8               	movwf	??_start
  3201     02A3  01D9               	clrf	??_start+1
  3202     02A4  01DA               	clrf	??_start+2
  3203     02A5  01DB               	clrf	??_start+3
  3204     02A6  085B               	movf	??_start+3,w
  3205     02A7  00F5               	movwf	___xxtofl@val+3
  3206     02A8  085A               	movf	??_start+2,w
  3207     02A9  00F4               	movwf	___xxtofl@val+2
  3208     02AA  0859               	movf	??_start+1,w
  3209     02AB  00F3               	movwf	___xxtofl@val+1
  3210     02AC  0858               	movf	??_start,w
  3211     02AD  00F2               	movwf	___xxtofl@val
  3212     02AE  3001               	movlw	1
  3213     02AF  120A  158A  2150  120A  118A  	fcall	___xxtofl
  3214     02B4  0875               	movf	?___xxtofl+3,w
  3215     02B5  1283               	bcf	3,5	;RP0=0, select bank0
  3216     02B6  1303               	bcf	3,6	;RP1=0, select bank0
  3217     02B7  00CF               	movwf	___flge@ff1+3
  3218     02B8  0874               	movf	?___xxtofl+2,w
  3219     02B9  00CE               	movwf	___flge@ff1+2
  3220     02BA  0873               	movf	?___xxtofl+1,w
  3221     02BB  00CD               	movwf	___flge@ff1+1
  3222     02BC  0872               	movf	?___xxtofl,w
  3223     02BD  00CC               	movwf	___flge@ff1
  3224     02BE  0868               	movf	_time,w
  3225     02BF  00DC               	movwf	??_start+4
  3226     02C0  01DD               	clrf	??_start+5
  3227     02C1  01DE               	clrf	??_start+6
  3228     02C2  01DF               	clrf	??_start+7
  3229     02C3  085F               	movf	??_start+7,w
  3230     02C4  00F5               	movwf	___xxtofl@val+3
  3231     02C5  085E               	movf	??_start+6,w
  3232     02C6  00F4               	movwf	___xxtofl@val+2
  3233     02C7  085D               	movf	??_start+5,w
  3234     02C8  00F3               	movwf	___xxtofl@val+1
  3235     02C9  085C               	movf	??_start+4,w
  3236     02CA  00F2               	movwf	___xxtofl@val
  3237     02CB  3001               	movlw	1
  3238     02CC  120A  158A  2150  120A  118A  	fcall	___xxtofl
  3239     02D1  0875               	movf	?___xxtofl+3,w
  3240     02D2  1283               	bcf	3,5	;RP0=0, select bank0
  3241     02D3  1303               	bcf	3,6	;RP1=0, select bank0
  3242     02D4  00CB               	movwf	___flsub@b+3
  3243     02D5  0874               	movf	?___xxtofl+2,w
  3244     02D6  00CA               	movwf	___flsub@b+2
  3245     02D7  0873               	movf	?___xxtofl+1,w
  3246     02D8  00C9               	movwf	___flsub@b+1
  3247     02D9  0872               	movf	?___xxtofl,w
  3248     02DA  00C8               	movwf	___flsub@b
  3249     02DB  0868               	movf	_time,w
  3250     02DC  00E0               	movwf	??_start+8
  3251     02DD  01E1               	clrf	??_start+9
  3252     02DE  01E2               	clrf	??_start+10
  3253     02DF  01E3               	clrf	??_start+11
  3254     02E0  0863               	movf	??_start+11,w
  3255     02E1  00F5               	movwf	___xxtofl@val+3
  3256     02E2  0862               	movf	??_start+10,w
  3257     02E3  00F4               	movwf	___xxtofl@val+2
  3258     02E4  0861               	movf	??_start+9,w
  3259     02E5  00F3               	movwf	___xxtofl@val+1
  3260     02E6  0860               	movf	??_start+8,w
  3261     02E7  00F2               	movwf	___xxtofl@val
  3262     02E8  3001               	movlw	1
  3263     02E9  120A  158A  2150  120A  118A  	fcall	___xxtofl
  3264     02EE  0875               	movf	?___xxtofl+3,w
  3265     02EF  1283               	bcf	3,5	;RP0=0, select bank0
  3266     02F0  1303               	bcf	3,6	;RP1=0, select bank0
  3267     02F1  00B1               	movwf	___flmul@a+3
  3268     02F2  0874               	movf	?___xxtofl+2,w
  3269     02F3  00B0               	movwf	___flmul@a+2
  3270     02F4  0873               	movf	?___xxtofl+1,w
  3271     02F5  00AF               	movwf	___flmul@a+1
  3272     02F6  0872               	movf	?___xxtofl,w
  3273     02F7  00AE               	movwf	___flmul@a
  3274     02F8  303E               	movlw	62
  3275     02F9  00AD               	movwf	___flmul@b+3
  3276     02FA  30CC               	movlw	204
  3277     02FB  00AC               	movwf	___flmul@b+2
  3278     02FC  30CC               	movlw	204
  3279     02FD  00AB               	movwf	___flmul@b+1
  3280     02FE  30CD               	movlw	205
  3281     02FF  00AA               	movwf	___flmul@b
  3282     0300  120A  118A  2422  120A  118A  	fcall	___flmul
  3283     0305  1283               	bcf	3,5	;RP0=0, select bank0
  3284     0306  1303               	bcf	3,6	;RP1=0, select bank0
  3285     0307  082D               	movf	?___flmul+3,w
  3286     0308  00C7               	movwf	___flsub@a+3
  3287     0309  082C               	movf	?___flmul+2,w
  3288     030A  00C6               	movwf	___flsub@a+2
  3289     030B  082B               	movf	?___flmul+1,w
  3290     030C  00C5               	movwf	___flsub@a+1
  3291     030D  082A               	movf	?___flmul,w
  3292     030E  00C4               	movwf	___flsub@a
  3293     030F  160A  118A  24BF  120A  118A  	fcall	___flsub
  3294     0314  1283               	bcf	3,5	;RP0=0, select bank0
  3295     0315  1303               	bcf	3,6	;RP1=0, select bank0
  3296     0316  0847               	movf	?___flsub+3,w
  3297     0317  00D3               	movwf	___flge@ff2+3
  3298     0318  0846               	movf	?___flsub+2,w
  3299     0319  00D2               	movwf	___flge@ff2+2
  3300     031A  0845               	movf	?___flsub+1,w
  3301     031B  00D1               	movwf	___flge@ff2+1
  3302     031C  0844               	movf	?___flsub,w
  3303     031D  00D0               	movwf	___flge@ff2
  3304     031E  160A  118A  275C  120A  118A  	fcall	___flge
  3305     0323  1C03               	btfss	3,0
  3306     0324  2B26               	goto	u5471
  3307     0325  2B27               	goto	u5470
  3308     0326                     u5471:
  3309     0326  2B35               	goto	l4210
  3310     0327                     u5470:
  3311     0327                     l4208:
  3312                           
  3313                           ;washing_machine_function_def.c: 318:             clcd_print("rinse",(0x80 + 10));
  3314     0327  3042               	movlw	low (STR_35| (0+32768))
  3315     0328  1283               	bcf	3,5	;RP0=0, select bank0
  3316     0329  1303               	bcf	3,6	;RP1=0, select bank0
  3317     032A  00A0               	movwf	clcd_print@str
  3318     032B  3091               	movlw	high (STR_35| (0+32768))
  3319     032C  00A1               	movwf	clcd_print@str+1
  3320     032D  308A               	movlw	138
  3321     032E  00A2               	movwf	clcd_print@addr
  3322     032F  160A  118A  24E3  120A  118A  	fcall	_clcd_print
  3323                           
  3324                           ;washing_machine_function_def.c: 319:         }
  3325     0334  2B60               	goto	l4218
  3326     0335                     l4210:
  3327                           
  3328                           ;washing_machine_function_def.c: 321:             clcd_print("spin ",(0x80 + 10));
  3329     0335  3030               	movlw	low (STR_36| (0+32768))
  3330     0336  1283               	bcf	3,5	;RP0=0, select bank0
  3331     0337  1303               	bcf	3,6	;RP1=0, select bank0
  3332     0338  00A0               	movwf	clcd_print@str
  3333     0339  3091               	movlw	high (STR_36| (0+32768))
  3334     033A  00A1               	movwf	clcd_print@str+1
  3335     033B  308A               	movlw	138
  3336     033C  00A2               	movwf	clcd_print@addr
  3337     033D  160A  118A  24E3  120A  118A  	fcall	_clcd_print
  3338     0342  2B60               	goto	l4218
  3339     0343                     l4212:
  3340     0343  3009               	movlw	9
  3341     0344  066C               	xorwf	_program_no,w
  3342     0345  1D03               	btfss	3,2
  3343     0346  2B48               	goto	u5481
  3344     0347  2B49               	goto	u5480
  3345     0348                     u5481:
  3346     0348  2B55               	goto	l4216
  3347     0349                     u5480:
  3348     0349                     l4214:
  3349                           
  3350                           ;washing_machine_function_def.c: 325:         clcd_print("spin ",(0x80 + 10));
  3351     0349  3030               	movlw	low (STR_36| (0+32768))
  3352     034A  00A0               	movwf	clcd_print@str
  3353     034B  3091               	movlw	high (STR_36| (0+32768))
  3354     034C  00A1               	movwf	clcd_print@str+1
  3355     034D  308A               	movlw	138
  3356     034E  00A2               	movwf	clcd_print@addr
  3357     034F  160A  118A  24E3  120A  118A  	fcall	_clcd_print
  3358                           
  3359                           ;washing_machine_function_def.c: 326:     }
  3360     0354  2B60               	goto	l4218
  3361     0355                     l4216:
  3362                           
  3363                           ;washing_machine_function_def.c: 328:         clcd_print("wash",(0x80 + 10));
  3364     0355  30C5               	movlw	low ((STR_11+6)| (0+32768))
  3365     0356  00A0               	movwf	clcd_print@str
  3366     0357  3090               	movlw	high ((STR_11+6)| (0+32768))
  3367     0358  00A1               	movwf	clcd_print@str+1
  3368     0359  308A               	movlw	138
  3369     035A  00A2               	movwf	clcd_print@addr
  3370     035B  160A  118A  24E3  120A  118A  	fcall	_clcd_print
  3371     0360                     l4218:
  3372                           
  3373                           ;washing_machine_function_def.c: 330:     clcd_putch(min/10 +'0',(0xC0 + 6));
  3374     0360  30C6               	movlw	198
  3375     0361  00F8               	movwf	clcd_putch@addr
  3376     0362  300A               	movlw	10
  3377     0363  00F2               	movwf	___awdiv@divisor
  3378     0364  3000               	movlw	0
  3379     0365  00F3               	movwf	___awdiv@divisor+1
  3380     0366  1283               	bcf	3,5	;RP0=0, select bank0
  3381     0367  1303               	bcf	3,6	;RP1=0, select bank0
  3382     0368  086D               	movf	_min,w
  3383     0369  00D8               	movwf	??_start
  3384     036A  01D9               	clrf	??_start+1
  3385     036B  0858               	movf	??_start,w
  3386     036C  00F4               	movwf	___awdiv@dividend
  3387     036D  0859               	movf	??_start+1,w
  3388     036E  00F5               	movwf	___awdiv@dividend+1
  3389     036F  160A  118A  261B  120A  118A  	fcall	___awdiv
  3390     0374  0872               	movf	?___awdiv,w
  3391     0375  3E30               	addlw	48
  3392     0376  160A  118A  2470  120A  118A  	fcall	_clcd_putch
  3393     037B                     l4220:
  3394                           
  3395                           ;washing_machine_function_def.c: 331:         clcd_putch(min%10 + '0',(0xC0 + 7));
  3396     037B  30C7               	movlw	199
  3397     037C  00F8               	movwf	clcd_putch@addr
  3398     037D  300A               	movlw	10
  3399     037E  00F2               	movwf	___awmod@divisor
  3400     037F  3000               	movlw	0
  3401     0380  00F3               	movwf	___awmod@divisor+1
  3402     0381  1283               	bcf	3,5	;RP0=0, select bank0
  3403     0382  1303               	bcf	3,6	;RP1=0, select bank0
  3404     0383  086D               	movf	_min,w
  3405     0384  00D8               	movwf	??_start
  3406     0385  01D9               	clrf	??_start+1
  3407     0386  0858               	movf	??_start,w
  3408     0387  00F4               	movwf	___awmod@dividend
  3409     0388  0859               	movf	??_start+1,w
  3410     0389  00F5               	movwf	___awmod@dividend+1
  3411     038A  160A  118A  25C4  120A  118A  	fcall	___awmod
  3412     038F  0872               	movf	?___awmod,w
  3413     0390  3E30               	addlw	48
  3414     0391  160A  118A  2470  120A  118A  	fcall	_clcd_putch
  3415     0396                     l4222:
  3416                           
  3417                           ;washing_machine_function_def.c: 332:         clcd_putch(':',(0xC0 + 8));
  3418     0396  30C8               	movlw	200
  3419     0397  00F8               	movwf	clcd_putch@addr
  3420     0398  303A               	movlw	58
  3421     0399  160A  118A  2470  120A  118A  	fcall	_clcd_putch
  3422     039E                     l4224:
  3423                           
  3424                           ;washing_machine_function_def.c: 333:         clcd_putch(sec/10 +'0',(0xC0 + 9));
  3425     039E  30C9               	movlw	201
  3426     039F  00F8               	movwf	clcd_putch@addr
  3427     03A0  300A               	movlw	10
  3428     03A1  00F2               	movwf	___awdiv@divisor
  3429     03A2  3000               	movlw	0
  3430     03A3  00F3               	movwf	___awdiv@divisor+1
  3431     03A4  1283               	bcf	3,5	;RP0=0, select bank0
  3432     03A5  1303               	bcf	3,6	;RP1=0, select bank0
  3433     03A6  086E               	movf	_sec,w
  3434     03A7  00D8               	movwf	??_start
  3435     03A8  01D9               	clrf	??_start+1
  3436     03A9  0858               	movf	??_start,w
  3437     03AA  00F4               	movwf	___awdiv@dividend
  3438     03AB  0859               	movf	??_start+1,w
  3439     03AC  00F5               	movwf	___awdiv@dividend+1
  3440     03AD  160A  118A  261B  120A  118A  	fcall	___awdiv
  3441     03B2  0872               	movf	?___awdiv,w
  3442     03B3  3E30               	addlw	48
  3443     03B4  160A  118A  2470  120A  118A  	fcall	_clcd_putch
  3444     03B9                     l4226:
  3445                           
  3446                           ;washing_machine_function_def.c: 334:         clcd_putch(sec%10 + '0',(0xC0 + 10));
  3447     03B9  30CA               	movlw	202
  3448     03BA  00F8               	movwf	clcd_putch@addr
  3449     03BB  300A               	movlw	10
  3450     03BC  00F2               	movwf	___awmod@divisor
  3451     03BD  3000               	movlw	0
  3452     03BE  00F3               	movwf	___awmod@divisor+1
  3453     03BF  1283               	bcf	3,5	;RP0=0, select bank0
  3454     03C0  1303               	bcf	3,6	;RP1=0, select bank0
  3455     03C1  086E               	movf	_sec,w
  3456     03C2  00D8               	movwf	??_start
  3457     03C3  01D9               	clrf	??_start+1
  3458     03C4  0858               	movf	??_start,w
  3459     03C5  00F4               	movwf	___awmod@dividend
  3460     03C6  0859               	movf	??_start+1,w
  3461     03C7  00F5               	movwf	___awmod@dividend+1
  3462     03C8  160A  118A  25C4  120A  118A  	fcall	___awmod
  3463     03CD  0872               	movf	?___awmod,w
  3464     03CE  3E30               	addlw	48
  3465     03CF  160A  118A  2470  120A  118A  	fcall	_clcd_putch
  3466     03D4                     l4228:
  3467                           
  3468                           ;washing_machine_function_def.c: 335:         if(min ==0 && sec == 0){
  3469     03D4  1283               	bcf	3,5	;RP0=0, select bank0
  3470     03D5  1303               	bcf	3,6	;RP1=0, select bank0
  3471     03D6  086D               	movf	_min,w
  3472     03D7  1D03               	btfss	3,2
  3473     03D8  2BDA               	goto	u5491
  3474     03D9  2BDB               	goto	u5490
  3475     03DA                     u5491:
  3476     03DA  2C21               	goto	l347
  3477     03DB                     u5490:
  3478     03DB                     l4230:
  3479     03DB  086E               	movf	_sec,w
  3480     03DC  1D03               	btfss	3,2
  3481     03DD  2BDF               	goto	u5501
  3482     03DE  2BE0               	goto	u5500
  3483     03DF                     u5501:
  3484     03DF  2C21               	goto	l347
  3485     03E0                     u5500:
  3486     03E0                     l4232:
  3487                           
  3488                           ;washing_machine_function_def.c: 336:             clear_clcd();
  3489     03E0  160A  118A  2439  120A  118A  	fcall	_clear_clcd
  3490     03E5                     l4234:
  3491                           
  3492                           ;washing_machine_function_def.c: 337:             RC2=0;
  3493     03E5  1283               	bcf	3,5	;RP0=0, select bank0
  3494     03E6  1303               	bcf	3,6	;RP1=0, select bank0
  3495     03E7  1107               	bcf	7,2	;volatile
  3496     03E8                     l4236:
  3497                           
  3498                           ;washing_machine_function_def.c: 338:             RC1=1;
  3499     03E8  1487               	bsf	7,1	;volatile
  3500     03E9                     l4238:
  3501                           
  3502                           ;washing_machine_function_def.c: 339:             clcd_print("Program complete", (0x80 +
      +                           0));
  3503     03E9  3012               	movlw	low (STR_41| (0+32768))
  3504     03EA  00A0               	movwf	clcd_print@str
  3505     03EB  3090               	movlw	high (STR_41| (0+32768))
  3506     03EC  00A1               	movwf	clcd_print@str+1
  3507     03ED  3080               	movlw	128
  3508     03EE  00A2               	movwf	clcd_print@addr
  3509     03EF  160A  118A  24E3  120A  118A  	fcall	_clcd_print
  3510     03F4                     l4240:
  3511                           
  3512                           ;washing_machine_function_def.c: 340:             clcd_print("Remove cloths", (0xC0 + 0)
      +                          );
  3513     03F4  3052               	movlw	low (STR_42| (0+32768))
  3514     03F5  1283               	bcf	3,5	;RP0=0, select bank0
  3515     03F6  1303               	bcf	3,6	;RP1=0, select bank0
  3516     03F7  00A0               	movwf	clcd_print@str
  3517     03F8  3090               	movlw	high (STR_42| (0+32768))
  3518     03F9  00A1               	movwf	clcd_print@str+1
  3519     03FA  30C0               	movlw	192
  3520     03FB  00A2               	movwf	clcd_print@addr
  3521     03FC  160A  118A  24E3  120A  118A  	fcall	_clcd_print
  3522     0401                     l4242:
  3523                           
  3524                           ;washing_machine_function_def.c: 341:             _delay((unsigned long)((2000)*(2000000
      +                          0/4000.0)));
  3525     0401  3033               	movlw	51
  3526     0402  1283               	bcf	3,5	;RP0=0, select bank0
  3527     0403  1303               	bcf	3,6	;RP1=0, select bank0
  3528     0404  00DA               	movwf	??_start+2
  3529     0405  30BB               	movlw	187
  3530     0406  00D9               	movwf	??_start+1
  3531     0407  30DF               	movlw	223
  3532     0408  00D8               	movwf	??_start
  3533     0409                     u5647:
  3534     0409  0BD8               	decfsz	??_start,f
  3535     040A  2C09               	goto	u5647
  3536     040B  0BD9               	decfsz	??_start+1,f
  3537     040C  2C09               	goto	u5647
  3538     040D  0BDA               	decfsz	??_start+2,f
  3539     040E  2C09               	goto	u5647
  3540     040F                     l4244:
  3541                           
  3542                           ;washing_machine_function_def.c: 342:             RC1 = 0;
  3543     040F  1283               	bcf	3,5	;RP0=0, select bank0
  3544     0410  1303               	bcf	3,6	;RP1=0, select bank0
  3545     0411  1087               	bcf	7,1	;volatile
  3546     0412                     l4246:
  3547                           
  3548                           ;washing_machine_function_def.c: 343:             operational_state=0x01;
  3549     0412  3001               	movlw	1
  3550     0413  00F9               	movwf	_operational_state
  3551     0414  3000               	movlw	0
  3552     0415  00FA               	movwf	_operational_state+1
  3553     0416                     l4248:
  3554                           
  3555                           ;washing_machine_function_def.c: 344:              reset_flag=0x11;
  3556     0416  3011               	movlw	17
  3557     0417  1683               	bsf	3,5	;RP0=1, select bank1
  3558     0418  1303               	bcf	3,6	;RP1=0, select bank1
  3559     0419  00C2               	movwf	_reset_flag^(0+128)
  3560     041A  3000               	movlw	0
  3561     041B  00C3               	movwf	(_reset_flag^(0+128)+1)
  3562     041C                     l4250:
  3563                           
  3564                           ;washing_machine_function_def.c: 345:              clear_clcd();
  3565     041C  160A  118A  2439  120A  118A  	fcall	_clear_clcd
  3566     0421                     l347:
  3567     0421  0008               	return
  3568     0422                     __end_of_start:
  3569                           
  3570                           	psect	text4
  3571     1680                     __ptext4:	
  3572 ;; *************** function _door_status_check *****************
  3573 ;; Defined at:
  3574 ;;		line 350 in file "washing_machine_function_def.c"
  3575 ;; Parameters:    Size  Location     Type
  3576 ;;		None
  3577 ;; Auto vars:     Size  Location     Type
  3578 ;;		None
  3579 ;; Return value:  Size  Location     Type
  3580 ;;                  1    wreg      void 
  3581 ;; Registers used:
  3582 ;;		wreg, fsr0l, fsr0h, status,2, status,0, btemp+1, pclath, cstack
  3583 ;; Tracked objects:
  3584 ;;		On entry : 0/0
  3585 ;;		On exit  : 0/0
  3586 ;;		Unchanged: 0/0
  3587 ;; Data sizes:     COMMON   BANK0   BANK1   BANK3   BANK2
  3588 ;;      Params:         0       0       0       0       0
  3589 ;;      Locals:         0       0       0       0       0
  3590 ;;      Temps:          0       0       0       0       0
  3591 ;;      Totals:         0       0       0       0       0
  3592 ;;Total ram usage:        0 bytes
  3593 ;; Hardware stack levels used: 1
  3594 ;; Hardware stack levels required when called: 3
  3595 ;; This function calls:
  3596 ;;		_clcd_print
  3597 ;;		_clear_clcd
  3598 ;; This function is called by:
  3599 ;;		_start
  3600 ;; This function uses a non-reentrant model
  3601 ;;
  3602                           
  3603     1680                     _door_status_check:	
  3604                           ;psect for function _door_status_check
  3605                           
  3606     1680                     l3238:	
  3607                           ;incstack = 0
  3608                           ; Regs used in _door_status_check: [wreg-fsr0h+status,2+status,0+btemp+1+pclath+cstack]
  3609                           
  3610                           
  3611                           ;washing_machine_function_def.c: 351:     if( RB0 == 0){
  3612     1680  1283               	bcf	3,5	;RP0=0, select bank0
  3613     1681  1303               	bcf	3,6	;RP1=0, select bank0
  3614     1682  1806               	btfsc	6,0	;volatile
  3615     1683  2E85               	goto	u4001
  3616     1684  2E86               	goto	u4000
  3617     1685                     u4001:
  3618     1685  2EEA               	goto	l354
  3619     1686                     u4000:
  3620     1686                     l3240:
  3621                           
  3622                           ;washing_machine_function_def.c: 353:         RC2 = 0;
  3623     1686  1107               	bcf	7,2	;volatile
  3624                           
  3625                           ;washing_machine_function_def.c: 354:         TMR2ON = 0;
  3626     1687  1112               	bcf	18,2	;volatile
  3627                           
  3628                           ;washing_machine_function_def.c: 355:         RC1 = 1;
  3629     1688  1487               	bsf	7,1	;volatile
  3630     1689                     l3242:
  3631                           
  3632                           ;washing_machine_function_def.c: 356:         clear_clcd();
  3633     1689  160A  118A  2439  160A  118A  	fcall	_clear_clcd
  3634     168E                     l3244:
  3635                           
  3636                           ;washing_machine_function_def.c: 357:         clcd_print("DOOR IS OPEN",(0x80 + 0));
  3637     168E  3060               	movlw	low (STR_43| (0+32768))
  3638     168F  1283               	bcf	3,5	;RP0=0, select bank0
  3639     1690  1303               	bcf	3,6	;RP1=0, select bank0
  3640     1691  00A0               	movwf	clcd_print@str
  3641     1692  3090               	movlw	high (STR_43| (0+32768))
  3642     1693  00A1               	movwf	clcd_print@str+1
  3643     1694  3080               	movlw	128
  3644     1695  00A2               	movwf	clcd_print@addr
  3645     1696  160A  118A  24E3  160A  118A  	fcall	_clcd_print
  3646     169B                     l3246:
  3647                           
  3648                           ;washing_machine_function_def.c: 358:         clcd_print("Please close door",(0xC0 + 0))
      +                          ;
  3649     169B  3000               	movlw	low (STR_44| (0+32768))
  3650     169C  1283               	bcf	3,5	;RP0=0, select bank0
  3651     169D  1303               	bcf	3,6	;RP1=0, select bank0
  3652     169E  00A0               	movwf	clcd_print@str
  3653     169F  3090               	movlw	high (STR_44| (0+32768))
  3654     16A0  00A1               	movwf	clcd_print@str+1
  3655     16A1  30C0               	movlw	192
  3656     16A2  00A2               	movwf	clcd_print@addr
  3657     16A3  160A  118A  24E3  160A  118A  	fcall	_clcd_print
  3658     16A8                     l351:	
  3659                           ;washing_machine_function_def.c: 363:         }
  3660                           
  3661                           
  3662                           ;washing_machine_function_def.c: 361:         while(RB0 == 0){
  3663     16A8  1283               	bcf	3,5	;RP0=0, select bank0
  3664     16A9  1303               	bcf	3,6	;RP1=0, select bank0
  3665     16AA  1C06               	btfss	6,0	;volatile
  3666     16AB  2EAD               	goto	u4011
  3667     16AC  2EAE               	goto	u4010
  3668     16AD                     u4011:
  3669     16AD  2EA8               	goto	l351
  3670     16AE                     u4010:
  3671     16AE                     l353:
  3672                           
  3673                           ;washing_machine_function_def.c: 364:         RC2 = 1;
  3674     16AE  1507               	bsf	7,2	;volatile
  3675                           
  3676                           ;washing_machine_function_def.c: 365:         TMR2ON = 1;
  3677     16AF  1512               	bsf	18,2	;volatile
  3678                           
  3679                           ;washing_machine_function_def.c: 366:         RC1 = 0;
  3680     16B0  1087               	bcf	7,1	;volatile
  3681     16B1                     l3248:
  3682                           
  3683                           ;washing_machine_function_def.c: 367:         clear_clcd();
  3684     16B1  160A  118A  2439  160A  118A  	fcall	_clear_clcd
  3685     16B6                     l3250:
  3686                           
  3687                           ;washing_machine_function_def.c: 368:         clcd_print("FUNCTION: ",(0x80 + 0));
  3688     16B6  309E               	movlw	low (STR_30| (0+32768))
  3689     16B7  1283               	bcf	3,5	;RP0=0, select bank0
  3690     16B8  1303               	bcf	3,6	;RP1=0, select bank0
  3691     16B9  00A0               	movwf	clcd_print@str
  3692     16BA  3090               	movlw	high (STR_30| (0+32768))
  3693     16BB  00A1               	movwf	clcd_print@str+1
  3694     16BC  3080               	movlw	128
  3695     16BD  00A2               	movwf	clcd_print@addr
  3696     16BE  160A  118A  24E3  160A  118A  	fcall	_clcd_print
  3697     16C3                     l3252:
  3698                           
  3699                           ;washing_machine_function_def.c: 369:         clcd_print("Time",(0xC0 + 0));
  3700     16C3  305E               	movlw	low (STR_31| (0+32768))
  3701     16C4  1283               	bcf	3,5	;RP0=0, select bank0
  3702     16C5  1303               	bcf	3,6	;RP1=0, select bank0
  3703     16C6  00A0               	movwf	clcd_print@str
  3704     16C7  3091               	movlw	high (STR_31| (0+32768))
  3705     16C8  00A1               	movwf	clcd_print@str+1
  3706     16C9  30C0               	movlw	192
  3707     16CA  00A2               	movwf	clcd_print@addr
  3708     16CB  160A  118A  24E3  160A  118A  	fcall	_clcd_print
  3709     16D0                     l3254:
  3710                           
  3711                           ;washing_machine_function_def.c: 370:         clcd_print("SW5: START",(0x90 + 0));
  3712     16D0  30D5               	movlw	low (STR_5| (0+32768))
  3713     16D1  1283               	bcf	3,5	;RP0=0, select bank0
  3714     16D2  1303               	bcf	3,6	;RP1=0, select bank0
  3715     16D3  00A0               	movwf	clcd_print@str
  3716     16D4  3090               	movlw	high (STR_5| (0+32768))
  3717     16D5  00A1               	movwf	clcd_print@str+1
  3718     16D6  3090               	movlw	144
  3719     16D7  00A2               	movwf	clcd_print@addr
  3720     16D8  160A  118A  24E3  160A  118A  	fcall	_clcd_print
  3721     16DD                     l3256:
  3722                           
  3723                           ;washing_machine_function_def.c: 371:         clcd_print("SW6: PAUSE",(0xD0 + 0));
  3724     16DD  30A9               	movlw	low (STR_33| (0+32768))
  3725     16DE  1283               	bcf	3,5	;RP0=0, select bank0
  3726     16DF  1303               	bcf	3,6	;RP1=0, select bank0
  3727     16E0  00A0               	movwf	clcd_print@str
  3728     16E1  3090               	movlw	high (STR_33| (0+32768))
  3729     16E2  00A1               	movwf	clcd_print@str+1
  3730     16E3  30D0               	movlw	208
  3731     16E4  00A2               	movwf	clcd_print@addr
  3732     16E5  160A  118A  24E3  160A  118A  	fcall	_clcd_print
  3733     16EA                     l354:
  3734     16EA  0008               	return
  3735     16EB                     __end_of_door_status_check:
  3736                           
  3737                           	psect	text5
  3738     1439                     __ptext5:	
  3739 ;; *************** function _clear_clcd *****************
  3740 ;; Defined at:
  3741 ;;		line 33 in file "washing_machine_function_def.c"
  3742 ;; Parameters:    Size  Location     Type
  3743 ;;		None
  3744 ;; Auto vars:     Size  Location     Type
  3745 ;;		None
  3746 ;; Return value:  Size  Location     Type
  3747 ;;                  1    wreg      void 
  3748 ;; Registers used:
  3749 ;;		wreg, status,2, status,0, pclath, cstack
  3750 ;; Tracked objects:
  3751 ;;		On entry : 0/0
  3752 ;;		On exit  : 0/0
  3753 ;;		Unchanged: 0/0
  3754 ;; Data sizes:     COMMON   BANK0   BANK1   BANK3   BANK2
  3755 ;;      Params:         0       0       0       0       0
  3756 ;;      Locals:         0       0       0       0       0
  3757 ;;      Temps:          2       0       0       0       0
  3758 ;;      Totals:         2       0       0       0       0
  3759 ;;Total ram usage:        2 bytes
  3760 ;; Hardware stack levels used: 1
  3761 ;; Hardware stack levels required when called: 2
  3762 ;; This function calls:
  3763 ;;		_clcd_write
  3764 ;; This function is called by:
  3765 ;;		_main
  3766 ;;		_washing_program_
  3767 ;;		_water_level_screen
  3768 ;;		_start
  3769 ;;		_door_status_check
  3770 ;; This function uses a non-reentrant model
  3771 ;;
  3772                           
  3773     1439                     _clear_clcd:	
  3774                           ;psect for function _clear_clcd
  3775                           
  3776     1439                     l3008:	
  3777                           ;incstack = 0
  3778                           ; Regs used in _clear_clcd: [wreg+status,2+status,0+pclath+cstack]
  3779                           
  3780                           
  3781                           ;washing_machine_function_def.c: 34:     clcd_write(0x01, 0);
  3782     1439  01F2               	clrf	clcd_write@mode
  3783     143A  3001               	movlw	1
  3784     143B  160A  118A  249F  160A  118A  	fcall	_clcd_write
  3785     1440                     l3010:
  3786                           
  3787                           ;washing_machine_function_def.c: 35:     _delay((unsigned long)((500)*(20000000/4000000.
      +                          0)));
  3788     1440  3004               	movlw	4
  3789     1441  00F7               	movwf	??_clear_clcd+1
  3790     1442  303D               	movlw	61
  3791     1443  00F6               	movwf	??_clear_clcd
  3792     1444                     u5657:
  3793     1444  0BF6               	decfsz	??_clear_clcd,f
  3794     1445  2C44               	goto	u5657
  3795     1446  0BF7               	decfsz	??_clear_clcd+1,f
  3796     1447  2C44               	goto	u5657
  3797     1448  2C49               	nop2
  3798     1449                     l213:
  3799     1449  0008               	return
  3800     144A                     __end_of_clear_clcd:
  3801                           
  3802                           	psect	text6
  3803     0950                     __ptext6:	
  3804 ;; *************** function ___xxtofl *****************
  3805 ;; Defined at:
  3806 ;;		line 10 in file "C:\Program Files\Microchip\xc8\v3.00\pic\sources\c99\common\xxtofl.c"
  3807 ;; Parameters:    Size  Location     Type
  3808 ;;  sign            1    wreg     unsigned char 
  3809 ;;  val             4    2[COMMON] long 
  3810 ;; Auto vars:     Size  Location     Type
  3811 ;;  sign            1    4[BANK0 ] unsigned char 
  3812 ;;  arg             4    6[BANK0 ] unsigned long 
  3813 ;;  exp             1    5[BANK0 ] unsigned char 
  3814 ;; Return value:  Size  Location     Type
  3815 ;;                  4    2[COMMON] unsigned char 
  3816 ;; Registers used:
  3817 ;;		wreg, status,2, status,0
  3818 ;; Tracked objects:
  3819 ;;		On entry : 0/0
  3820 ;;		On exit  : 0/0
  3821 ;;		Unchanged: 0/0
  3822 ;; Data sizes:     COMMON   BANK0   BANK1   BANK3   BANK2
  3823 ;;      Params:         4       0       0       0       0
  3824 ;;      Locals:         0       6       0       0       0
  3825 ;;      Temps:          0       4       0       0       0
  3826 ;;      Totals:         4      10       0       0       0
  3827 ;;Total ram usage:       14 bytes
  3828 ;; Hardware stack levels used: 1
  3829 ;; Hardware stack levels required when called: 1
  3830 ;; This function calls:
  3831 ;;		Nothing
  3832 ;; This function is called by:
  3833 ;;		_start
  3834 ;; This function uses a non-reentrant model
  3835 ;;
  3836                           
  3837     0950                     ___xxtofl:	
  3838                           ;psect for function ___xxtofl
  3839                           
  3840                           
  3841                           ;incstack = 0
  3842                           ; Regs used in ___xxtofl: [wreg+status,2+status,0]
  3843                           ;___xxtofl@sign stored from wreg
  3844     0950  1283               	bcf	3,5	;RP0=0, select bank0
  3845     0951  1303               	bcf	3,6	;RP1=0, select bank0
  3846     0952  00A4               	movwf	___xxtofl@sign
  3847     0953                     l3558:
  3848     0953  0824               	movf	___xxtofl@sign,w
  3849     0954  1903               	btfsc	3,2
  3850     0955  2957               	goto	u4771
  3851     0956  2958               	goto	u4770
  3852     0957                     u4771:
  3853     0957  296C               	goto	l3564
  3854     0958                     u4770:
  3855     0958                     l3560:
  3856     0958  1FF5               	btfss	___xxtofl@val+3,7
  3857     0959  295B               	goto	u4781
  3858     095A  295C               	goto	u4780
  3859     095B                     u4781:
  3860     095B  296C               	goto	l3564
  3861     095C                     u4780:
  3862     095C                     l3562:
  3863     095C  0972               	comf	___xxtofl@val,w
  3864     095D  00A6               	movwf	___xxtofl@arg
  3865     095E  0973               	comf	___xxtofl@val+1,w
  3866     095F  00A7               	movwf	___xxtofl@arg+1
  3867     0960  0974               	comf	___xxtofl@val+2,w
  3868     0961  00A8               	movwf	___xxtofl@arg+2
  3869     0962  0975               	comf	___xxtofl@val+3,w
  3870     0963  00A9               	movwf	___xxtofl@arg+3
  3871     0964  0AA6               	incf	___xxtofl@arg,f
  3872     0965  1903               	skipnz
  3873     0966  0AA7               	incf	___xxtofl@arg+1,f
  3874     0967  1903               	skipnz
  3875     0968  0AA8               	incf	___xxtofl@arg+2,f
  3876     0969  1903               	skipnz
  3877     096A  0AA9               	incf	___xxtofl@arg+3,f
  3878     096B  2974               	goto	l881
  3879     096C                     l3564:
  3880     096C  0875               	movf	___xxtofl@val+3,w
  3881     096D  00A9               	movwf	___xxtofl@arg+3
  3882     096E  0874               	movf	___xxtofl@val+2,w
  3883     096F  00A8               	movwf	___xxtofl@arg+2
  3884     0970  0873               	movf	___xxtofl@val+1,w
  3885     0971  00A7               	movwf	___xxtofl@arg+1
  3886     0972  0872               	movf	___xxtofl@val,w
  3887     0973  00A6               	movwf	___xxtofl@arg
  3888     0974                     l881:
  3889     0974  0875               	movf	___xxtofl@val+3,w
  3890     0975  0474               	iorwf	___xxtofl@val+2,w
  3891     0976  0473               	iorwf	___xxtofl@val+1,w
  3892     0977  0472               	iorwf	___xxtofl@val,w
  3893     0978  1D03               	skipz
  3894     0979  297B               	goto	u4791
  3895     097A  297C               	goto	u4790
  3896     097B                     u4791:
  3897     097B  2985               	goto	l882
  3898     097C                     u4790:
  3899     097C                     l3566:
  3900     097C  3000               	movlw	0
  3901     097D  00F5               	movwf	?___xxtofl+3
  3902     097E  3000               	movlw	0
  3903     097F  00F4               	movwf	?___xxtofl+2
  3904     0980  3000               	movlw	0
  3905     0981  00F3               	movwf	?___xxtofl+1
  3906     0982  3000               	movlw	0
  3907     0983  00F2               	movwf	?___xxtofl
  3908     0984  2A05               	goto	l883
  3909     0985                     l882:
  3910     0985  3096               	movlw	150
  3911     0986  00A5               	movwf	___xxtofl@exp
  3912     0987  2993               	goto	l3572
  3913     0988                     l3570:
  3914     0988  3001               	movlw	1
  3915     0989  07A5               	addwf	___xxtofl@exp,f
  3916     098A  3001               	movlw	1
  3917     098B                     u4805:
  3918     098B  1003               	clrc
  3919     098C  0CA9               	rrf	___xxtofl@arg+3,f
  3920     098D  0CA8               	rrf	___xxtofl@arg+2,f
  3921     098E  0CA7               	rrf	___xxtofl@arg+1,f
  3922     098F  0CA6               	rrf	___xxtofl@arg,f
  3923     0990  3EFF               	addlw	-1
  3924     0991  1D03               	skipz
  3925     0992  298B               	goto	u4805
  3926     0993                     l3572:
  3927     0993  30FE               	movlw	254
  3928     0994  0529               	andwf	___xxtofl@arg+3,w
  3929     0995  1D03               	btfss	3,2
  3930     0996  2998               	goto	u4811
  3931     0997  2999               	goto	u4810
  3932     0998                     u4811:
  3933     0998  2988               	goto	l3570
  3934     0999                     u4810:
  3935     0999  29B3               	goto	l887
  3936     099A                     l3574:
  3937     099A  3001               	movlw	1
  3938     099B  07A5               	addwf	___xxtofl@exp,f
  3939     099C                     l3576:
  3940     099C  3001               	movlw	1
  3941     099D  07A6               	addwf	___xxtofl@arg,f
  3942     099E  3000               	movlw	0
  3943     099F  1803               	skipnc
  3944     09A0  3001               	movlw	1
  3945     09A1  07A7               	addwf	___xxtofl@arg+1,f
  3946     09A2  3000               	movlw	0
  3947     09A3  1803               	skipnc
  3948     09A4  3001               	movlw	1
  3949     09A5  07A8               	addwf	___xxtofl@arg+2,f
  3950     09A6  3000               	movlw	0
  3951     09A7  1803               	skipnc
  3952     09A8  3001               	movlw	1
  3953     09A9  07A9               	addwf	___xxtofl@arg+3,f
  3954     09AA                     l3578:
  3955     09AA  3001               	movlw	1
  3956     09AB                     u4825:
  3957     09AB  1003               	clrc
  3958     09AC  0CA9               	rrf	___xxtofl@arg+3,f
  3959     09AD  0CA8               	rrf	___xxtofl@arg+2,f
  3960     09AE  0CA7               	rrf	___xxtofl@arg+1,f
  3961     09AF  0CA6               	rrf	___xxtofl@arg,f
  3962     09B0  3EFF               	addlw	-1
  3963     09B1  1D03               	skipz
  3964     09B2  29AB               	goto	u4825
  3965     09B3                     l887:
  3966     09B3  30FF               	movlw	255
  3967     09B4  0529               	andwf	___xxtofl@arg+3,w
  3968     09B5  1D03               	btfss	3,2
  3969     09B6  29B8               	goto	u4831
  3970     09B7  29B9               	goto	u4830
  3971     09B8                     u4831:
  3972     09B8  299A               	goto	l3574
  3973     09B9                     u4830:
  3974     09B9  29C5               	goto	l3582
  3975     09BA                     l3580:
  3976     09BA  3001               	movlw	1
  3977     09BB  02A5               	subwf	___xxtofl@exp,f
  3978     09BC  3001               	movlw	1
  3979     09BD  00A0               	movwf	??___xxtofl
  3980     09BE                     u4845:
  3981     09BE  1003               	clrc
  3982     09BF  0DA6               	rlf	___xxtofl@arg,f
  3983     09C0  0DA7               	rlf	___xxtofl@arg+1,f
  3984     09C1  0DA8               	rlf	___xxtofl@arg+2,f
  3985     09C2  0DA9               	rlf	___xxtofl@arg+3,f
  3986     09C3  0BA0               	decfsz	??___xxtofl,f
  3987     09C4  29BE               	goto	u4845
  3988     09C5                     l3582:
  3989     09C5  1BA8               	btfsc	___xxtofl@arg+2,7
  3990     09C6  29C8               	goto	u4851
  3991     09C7  29C9               	goto	u4850
  3992     09C8                     u4851:
  3993     09C8  29CF               	goto	l894
  3994     09C9                     u4850:
  3995     09C9                     l3584:
  3996     09C9  3002               	movlw	2
  3997     09CA  0225               	subwf	___xxtofl@exp,w
  3998     09CB  1803               	skipnc
  3999     09CC  29CE               	goto	u4861
  4000     09CD  29CF               	goto	u4860
  4001     09CE                     u4861:
  4002     09CE  29BA               	goto	l3580
  4003     09CF                     u4860:
  4004     09CF                     l894:
  4005     09CF  1825               	btfsc	___xxtofl@exp,0
  4006     09D0  29D2               	goto	u4871
  4007     09D1  29D3               	goto	u4870
  4008     09D2                     u4871:
  4009     09D2  29DB               	goto	l895
  4010     09D3                     u4870:
  4011     09D3                     l3586:
  4012     09D3  30FF               	movlw	255
  4013     09D4  05A6               	andwf	___xxtofl@arg,f
  4014     09D5  30FF               	movlw	255
  4015     09D6  05A7               	andwf	___xxtofl@arg+1,f
  4016     09D7  307F               	movlw	127
  4017     09D8  05A8               	andwf	___xxtofl@arg+2,f
  4018     09D9  30FF               	movlw	255
  4019     09DA  05A9               	andwf	___xxtofl@arg+3,f
  4020     09DB                     l895:
  4021     09DB  1003               	clrc
  4022     09DC  0CA5               	rrf	___xxtofl@exp,f
  4023     09DD                     l3588:
  4024     09DD  0825               	movf	___xxtofl@exp,w
  4025     09DE  00A0               	movwf	??___xxtofl
  4026     09DF  01A1               	clrf	??___xxtofl+1
  4027     09E0  01A2               	clrf	??___xxtofl+2
  4028     09E1  01A3               	clrf	??___xxtofl+3
  4029     09E2  3018               	movlw	24
  4030     09E3                     u4885:
  4031     09E3  1003               	clrc
  4032     09E4  0DA0               	rlf	??___xxtofl,f
  4033     09E5  0DA1               	rlf	??___xxtofl+1,f
  4034     09E6  0DA2               	rlf	??___xxtofl+2,f
  4035     09E7  0DA3               	rlf	??___xxtofl+3,f
  4036     09E8                     u4880:
  4037     09E8  3EFF               	addlw	-1
  4038     09E9  1D03               	skipz
  4039     09EA  29E3               	goto	u4885
  4040     09EB  0820               	movf	??___xxtofl,w
  4041     09EC  04A6               	iorwf	___xxtofl@arg,f
  4042     09ED  0821               	movf	??___xxtofl+1,w
  4043     09EE  04A7               	iorwf	___xxtofl@arg+1,f
  4044     09EF  0822               	movf	??___xxtofl+2,w
  4045     09F0  04A8               	iorwf	___xxtofl@arg+2,f
  4046     09F1  0823               	movf	??___xxtofl+3,w
  4047     09F2  04A9               	iorwf	___xxtofl@arg+3,f
  4048     09F3                     l3590:
  4049     09F3  0824               	movf	___xxtofl@sign,w
  4050     09F4  1903               	btfsc	3,2
  4051     09F5  29F7               	goto	u4891
  4052     09F6  29F8               	goto	u4890
  4053     09F7                     u4891:
  4054     09F7  29FD               	goto	l3596
  4055     09F8                     u4890:
  4056     09F8                     l3592:
  4057     09F8  1FF5               	btfss	___xxtofl@val+3,7
  4058     09F9  29FB               	goto	u4901
  4059     09FA  29FC               	goto	u4900
  4060     09FB                     u4901:
  4061     09FB  29FD               	goto	l3596
  4062     09FC                     u4900:
  4063     09FC                     l3594:
  4064     09FC  17A9               	bsf	___xxtofl@arg+3,7
  4065     09FD                     l3596:
  4066     09FD  0829               	movf	___xxtofl@arg+3,w
  4067     09FE  00F5               	movwf	?___xxtofl+3
  4068     09FF  0828               	movf	___xxtofl@arg+2,w
  4069     0A00  00F4               	movwf	?___xxtofl+2
  4070     0A01  0827               	movf	___xxtofl@arg+1,w
  4071     0A02  00F3               	movwf	?___xxtofl+1
  4072     0A03  0826               	movf	___xxtofl@arg,w
  4073     0A04  00F2               	movwf	?___xxtofl
  4074     0A05                     l883:
  4075     0A05  0008               	return
  4076     0A06                     __end_of___xxtofl:
  4077                           
  4078                           	psect	text7
  4079     0764                     __ptext7:	
  4080 ;; *************** function ___fltol *****************
  4081 ;; Defined at:
  4082 ;;		line 43 in file "C:\Program Files\Microchip\xc8\v3.00\pic\sources\c99\common\fltol.c"
  4083 ;; Parameters:    Size  Location     Type
  4084 ;;  f1              4   36[BANK0 ] unsigned char 
  4085 ;; Auto vars:     Size  Location     Type
  4086 ;;  exp1            1    7[COMMON] unsigned char 
  4087 ;;  sign1           1    6[COMMON] unsigned char 
  4088 ;; Return value:  Size  Location     Type
  4089 ;;                  4   36[BANK0 ] long 
  4090 ;; Registers used:
  4091 ;;		wreg, status,2, status,0
  4092 ;; Tracked objects:
  4093 ;;		On entry : 0/0
  4094 ;;		On exit  : 0/0
  4095 ;;		Unchanged: 0/0
  4096 ;; Data sizes:     COMMON   BANK0   BANK1   BANK3   BANK2
  4097 ;;      Params:         0       4       0       0       0
  4098 ;;      Locals:         2       0       0       0       0
  4099 ;;      Temps:          0       4       0       0       0
  4100 ;;      Totals:         2       8       0       0       0
  4101 ;;Total ram usage:       10 bytes
  4102 ;; Hardware stack levels used: 1
  4103 ;; Hardware stack levels required when called: 1
  4104 ;; This function calls:
  4105 ;;		Nothing
  4106 ;; This function is called by:
  4107 ;;		_start
  4108 ;; This function uses a non-reentrant model
  4109 ;;
  4110                           
  4111     0764                     ___fltol:	
  4112                           ;psect for function ___fltol
  4113                           
  4114     0764                     l3374:	
  4115                           ;incstack = 0
  4116                           ; Regs used in ___fltol: [wreg+status,2+status,0]
  4117                           
  4118     0764  1003               	clrc
  4119     0765  1283               	bcf	3,5	;RP0=0, select bank0
  4120     0766  1303               	bcf	3,6	;RP1=0, select bank0
  4121     0767  0D46               	rlf	___fltol@f1+2,w
  4122     0768  0D47               	rlf	___fltol@f1+3,w
  4123     0769  00F7               	movwf	___fltol@exp1
  4124     076A  0877               	movf	___fltol@exp1,w
  4125     076B  1D03               	btfss	3,2
  4126     076C  2F6E               	goto	u4301
  4127     076D  2F6F               	goto	u4300
  4128     076E                     u4301:
  4129     076E  2F78               	goto	l3380
  4130     076F                     u4300:
  4131     076F                     l3376:
  4132     076F  3000               	movlw	0
  4133     0770  00C7               	movwf	?___fltol+3
  4134     0771  3000               	movlw	0
  4135     0772  00C6               	movwf	?___fltol+2
  4136     0773  3000               	movlw	0
  4137     0774  00C5               	movwf	?___fltol+1
  4138     0775  3000               	movlw	0
  4139     0776  00C4               	movwf	?___fltol
  4140     0777  2FD9               	goto	l634
  4141     0778                     l3380:
  4142     0778  0844               	movf	___fltol@f1,w
  4143     0779  00C8               	movwf	??___fltol
  4144     077A  0845               	movf	___fltol@f1+1,w
  4145     077B  00C9               	movwf	??___fltol+1
  4146     077C  0846               	movf	___fltol@f1+2,w
  4147     077D  00CA               	movwf	??___fltol+2
  4148     077E  0847               	movf	___fltol@f1+3,w
  4149     077F  00CB               	movwf	??___fltol+3
  4150     0780  301F               	movlw	31
  4151     0781                     u4315:
  4152     0781  1003               	clrc
  4153     0782  0CCB               	rrf	??___fltol+3,f
  4154     0783  0CCA               	rrf	??___fltol+2,f
  4155     0784  0CC9               	rrf	??___fltol+1,f
  4156     0785  0CC8               	rrf	??___fltol,f
  4157     0786                     u4310:
  4158     0786  3EFF               	addlw	-1
  4159     0787  1D03               	skipz
  4160     0788  2F81               	goto	u4315
  4161     0789  0848               	movf	??___fltol,w
  4162     078A  00F6               	movwf	___fltol@sign1
  4163     078B                     l3382:
  4164     078B  17C6               	bsf	___fltol@f1+2,7
  4165     078C                     l3384:
  4166     078C  30FF               	movlw	255
  4167     078D  05C4               	andwf	___fltol@f1,f
  4168     078E  30FF               	movlw	255
  4169     078F  05C5               	andwf	___fltol@f1+1,f
  4170     0790  30FF               	movlw	255
  4171     0791  05C6               	andwf	___fltol@f1+2,f
  4172     0792  3000               	movlw	0
  4173     0793  05C7               	andwf	___fltol@f1+3,f
  4174     0794                     l3386:
  4175     0794  3096               	movlw	150
  4176     0795  02F7               	subwf	___fltol@exp1,f
  4177     0796                     l3388:
  4178     0796  1FF7               	btfss	___fltol@exp1,7
  4179     0797  2F99               	goto	u4321
  4180     0798  2F9A               	goto	u4320
  4181     0799                     u4321:
  4182     0799  2FB2               	goto	l3398
  4183     079A                     u4320:
  4184     079A                     l3390:
  4185     079A  0877               	movf	___fltol@exp1,w
  4186     079B  3A80               	xorlw	128
  4187     079C  3E97               	addlw	151
  4188     079D  1803               	skipnc
  4189     079E  2FA0               	goto	u4331
  4190     079F  2FA1               	goto	u4330
  4191     07A0                     u4331:
  4192     07A0  2FA2               	goto	l3396
  4193     07A1                     u4330:
  4194     07A1  2F6F               	goto	l3376
  4195     07A2                     l3396:
  4196     07A2  3001               	movlw	1
  4197     07A3                     u4345:
  4198     07A3  1003               	clrc
  4199     07A4  0CC7               	rrf	___fltol@f1+3,f
  4200     07A5  0CC6               	rrf	___fltol@f1+2,f
  4201     07A6  0CC5               	rrf	___fltol@f1+1,f
  4202     07A7  0CC4               	rrf	___fltol@f1,f
  4203     07A8  3EFF               	addlw	-1
  4204     07A9  1D03               	skipz
  4205     07AA  2FA3               	goto	u4345
  4206     07AB  3001               	movlw	1
  4207     07AC  07F7               	addwf	___fltol@exp1,f
  4208     07AD  1D03               	btfss	3,2
  4209     07AE  2FB0               	goto	u4351
  4210     07AF  2FB1               	goto	u4350
  4211     07B0                     u4351:
  4212     07B0  2FA2               	goto	l3396
  4213     07B1                     u4350:
  4214     07B1  2FC9               	goto	l3406
  4215     07B2                     l3398:
  4216     07B2  3020               	movlw	32
  4217     07B3  0277               	subwf	___fltol@exp1,w
  4218     07B4  1C03               	skipc
  4219     07B5  2FB7               	goto	u4361
  4220     07B6  2FB8               	goto	u4360
  4221     07B7                     u4361:
  4222     07B7  2FC4               	goto	l641
  4223     07B8                     u4360:
  4224     07B8  2F6F               	goto	l3376
  4225     07B9                     l3404:
  4226     07B9  3001               	movlw	1
  4227     07BA  00C8               	movwf	??___fltol
  4228     07BB                     u4375:
  4229     07BB  1003               	clrc
  4230     07BC  0DC4               	rlf	___fltol@f1,f
  4231     07BD  0DC5               	rlf	___fltol@f1+1,f
  4232     07BE  0DC6               	rlf	___fltol@f1+2,f
  4233     07BF  0DC7               	rlf	___fltol@f1+3,f
  4234     07C0  0BC8               	decfsz	??___fltol,f
  4235     07C1  2FBB               	goto	u4375
  4236     07C2  3001               	movlw	1
  4237     07C3  02F7               	subwf	___fltol@exp1,f
  4238     07C4                     l641:
  4239     07C4  0877               	movf	___fltol@exp1,w
  4240     07C5  1D03               	btfss	3,2
  4241     07C6  2FC8               	goto	u4381
  4242     07C7  2FC9               	goto	u4380
  4243     07C8                     u4381:
  4244     07C8  2FB9               	goto	l3404
  4245     07C9                     u4380:
  4246     07C9                     l3406:
  4247     07C9  0876               	movf	___fltol@sign1,w
  4248     07CA  1903               	btfsc	3,2
  4249     07CB  2FCD               	goto	u4391
  4250     07CC  2FCE               	goto	u4390
  4251     07CD                     u4391:
  4252     07CD  2FD9               	goto	l644
  4253     07CE                     u4390:
  4254     07CE                     l3408:
  4255     07CE  09C4               	comf	___fltol@f1,f
  4256     07CF  09C5               	comf	___fltol@f1+1,f
  4257     07D0  09C6               	comf	___fltol@f1+2,f
  4258     07D1  09C7               	comf	___fltol@f1+3,f
  4259     07D2  0AC4               	incf	___fltol@f1,f
  4260     07D3  1903               	skipnz
  4261     07D4  0AC5               	incf	___fltol@f1+1,f
  4262     07D5  1903               	skipnz
  4263     07D6  0AC6               	incf	___fltol@f1+2,f
  4264     07D7  1903               	skipnz
  4265     07D8  0AC7               	incf	___fltol@f1+3,f
  4266     07D9                     l644:
  4267     07D9                     l634:
  4268     07D9  0008               	return
  4269     07DA                     __end_of___fltol:
  4270                           
  4271                           	psect	text8
  4272     14BF                     __ptext8:	
  4273 ;; *************** function ___flsub *****************
  4274 ;; Defined at:
  4275 ;;		line 242 in file "C:\Program Files\Microchip\xc8\v3.00\pic\sources\c99\common\sprcadd.c"
  4276 ;; Parameters:    Size  Location     Type
  4277 ;;  a               4   36[BANK0 ] long 
  4278 ;;  b               4   40[BANK0 ] long 
  4279 ;; Auto vars:     Size  Location     Type
  4280 ;;		None
  4281 ;; Return value:  Size  Location     Type
  4282 ;;                  4   36[BANK0 ] long 
  4283 ;; Registers used:
  4284 ;;		wreg, status,2, status,0, btemp+1, pclath, cstack
  4285 ;; Tracked objects:
  4286 ;;		On entry : 0/0
  4287 ;;		On exit  : 0/0
  4288 ;;		Unchanged: 0/0
  4289 ;; Data sizes:     COMMON   BANK0   BANK1   BANK3   BANK2
  4290 ;;      Params:         0       8       0       0       0
  4291 ;;      Locals:         0       0       0       0       0
  4292 ;;      Temps:          0       0       0       0       0
  4293 ;;      Totals:         0       8       0       0       0
  4294 ;;Total ram usage:        8 bytes
  4295 ;; Hardware stack levels used: 1
  4296 ;; Hardware stack levels required when called: 2
  4297 ;; This function calls:
  4298 ;;		___fladd
  4299 ;; This function is called by:
  4300 ;;		_start
  4301 ;; This function uses a non-reentrant model
  4302 ;;
  4303                           
  4304     14BF                     ___flsub:	
  4305                           ;psect for function ___flsub
  4306                           
  4307     14BF                     l3410:	
  4308                           ;incstack = 0
  4309                           ; Regs used in ___flsub: [wreg+status,2+status,0+btemp+1+pclath+cstack]
  4310                           
  4311     14BF  3080               	movlw	128
  4312     14C0  1283               	bcf	3,5	;RP0=0, select bank0
  4313     14C1  1303               	bcf	3,6	;RP1=0, select bank0
  4314     14C2  06C7               	xorwf	___flsub@a+3,f
  4315     14C3                     l3412:
  4316     14C3  084B               	movf	___flsub@b+3,w
  4317     14C4  00A3               	movwf	___fladd@b+3
  4318     14C5  084A               	movf	___flsub@b+2,w
  4319     14C6  00A2               	movwf	___fladd@b+2
  4320     14C7  0849               	movf	___flsub@b+1,w
  4321     14C8  00A1               	movwf	___fladd@b+1
  4322     14C9  0848               	movf	___flsub@b,w
  4323     14CA  00A0               	movwf	___fladd@b
  4324     14CB  0847               	movf	___flsub@a+3,w
  4325     14CC  00A7               	movwf	___fladd@a+3
  4326     14CD  0846               	movf	___flsub@a+2,w
  4327     14CE  00A6               	movwf	___fladd@a+2
  4328     14CF  0845               	movf	___flsub@a+1,w
  4329     14D0  00A5               	movwf	___fladd@a+1
  4330     14D1  0844               	movf	___flsub@a,w
  4331     14D2  00A4               	movwf	___fladd@a
  4332     14D3  120A  158A  25A8  160A  118A  	fcall	___fladd
  4333     14D8  1283               	bcf	3,5	;RP0=0, select bank0
  4334     14D9  1303               	bcf	3,6	;RP1=0, select bank0
  4335     14DA  0823               	movf	?___fladd+3,w
  4336     14DB  00C7               	movwf	?___flsub+3
  4337     14DC  0822               	movf	?___fladd+2,w
  4338     14DD  00C6               	movwf	?___flsub+2
  4339     14DE  0821               	movf	?___fladd+1,w
  4340     14DF  00C5               	movwf	?___flsub+1
  4341     14E0  0820               	movf	?___fladd,w
  4342     14E1  00C4               	movwf	?___flsub
  4343     14E2                     l787:
  4344     14E2  0008               	return
  4345     14E3                     __end_of___flsub:
  4346                           
  4347                           	psect	text9
  4348     0DA8                     __ptext9:	
  4349 ;; *************** function ___fladd *****************
  4350 ;; Defined at:
  4351 ;;		line 10 in file "C:\Program Files\Microchip\xc8\v3.00\pic\sources\c99\common\sprcadd.c"
  4352 ;; Parameters:    Size  Location     Type
  4353 ;;  b               4    0[BANK0 ] long 
  4354 ;;  a               4    4[BANK0 ] long 
  4355 ;; Auto vars:     Size  Location     Type
  4356 ;;  grs             1    5[COMMON] unsigned char 
  4357 ;;  bexp            1    4[COMMON] unsigned char 
  4358 ;;  aexp            1    3[COMMON] unsigned char 
  4359 ;;  signs           1    2[COMMON] unsigned char 
  4360 ;; Return value:  Size  Location     Type
  4361 ;;                  4    0[BANK0 ] unsigned char 
  4362 ;; Registers used:
  4363 ;;		wreg, status,2, status,0, btemp+1
  4364 ;; Tracked objects:
  4365 ;;		On entry : 0/0
  4366 ;;		On exit  : 0/0
  4367 ;;		Unchanged: 0/0
  4368 ;; Data sizes:     COMMON   BANK0   BANK1   BANK3   BANK2
  4369 ;;      Params:         0       8       0       0       0
  4370 ;;      Locals:         4       0       0       0       0
  4371 ;;      Temps:          0       8       0       0       0
  4372 ;;      Totals:         4      16       0       0       0
  4373 ;;Total ram usage:       20 bytes
  4374 ;; Hardware stack levels used: 1
  4375 ;; Hardware stack levels required when called: 1
  4376 ;; This function calls:
  4377 ;;		Nothing
  4378 ;; This function is called by:
  4379 ;;		___flsub
  4380 ;; This function uses a non-reentrant model
  4381 ;;
  4382                           
  4383     0DA8                     ___fladd:	
  4384                           ;psect for function ___fladd
  4385                           
  4386     0DA8                     l3012:	
  4387                           ;incstack = 0
  4388                           ; Regs used in ___fladd: [wreg+status,2+status,0+btemp+1]
  4389                           
  4390     0DA8  1283               	bcf	3,5	;RP0=0, select bank0
  4391     0DA9  1303               	bcf	3,6	;RP1=0, select bank0
  4392     0DAA  0823               	movf	___fladd@b+3,w
  4393     0DAB  00F2               	movwf	___fladd@signs
  4394     0DAC                     l3014:
  4395     0DAC  3080               	movlw	128
  4396     0DAD  05F2               	andwf	___fladd@signs,f
  4397     0DAE                     l3016:
  4398     0DAE  0823               	movf	___fladd@b+3,w
  4399     0DAF  00A8               	movwf	??___fladd
  4400     0DB0  0728               	addwf	??___fladd,w
  4401     0DB1  00F4               	movwf	___fladd@bexp
  4402     0DB2                     l3018:
  4403     0DB2  1FA2               	btfss	___fladd@b+2,7
  4404     0DB3  2DB5               	goto	u3511
  4405     0DB4  2DB6               	goto	u3510
  4406     0DB5                     u3511:
  4407     0DB5  2DB7               	goto	l3022
  4408     0DB6                     u3510:
  4409     0DB6                     l3020:
  4410     0DB6  1474               	bsf	___fladd@bexp,0
  4411     0DB7                     l3022:
  4412     0DB7  0874               	movf	___fladd@bexp,w
  4413     0DB8  1903               	btfsc	3,2
  4414     0DB9  2DBB               	goto	u3521
  4415     0DBA  2DBC               	goto	u3520
  4416     0DBB                     u3521:
  4417     0DBB  2DCC               	goto	l3032
  4418     0DBC                     u3520:
  4419     0DBC                     l3024:
  4420     0DBC  0A74               	incf	___fladd@bexp,w
  4421     0DBD  1D03               	btfss	3,2
  4422     0DBE  2DC0               	goto	u3531
  4423     0DBF  2DC1               	goto	u3530
  4424     0DC0                     u3531:
  4425     0DC0  2DC9               	goto	l3028
  4426     0DC1                     u3530:
  4427     0DC1                     l3026:
  4428     0DC1  3000               	movlw	0
  4429     0DC2  00A3               	movwf	___fladd@b+3
  4430     0DC3  3000               	movlw	0
  4431     0DC4  00A2               	movwf	___fladd@b+2
  4432     0DC5  3000               	movlw	0
  4433     0DC6  00A1               	movwf	___fladd@b+1
  4434     0DC7  3000               	movlw	0
  4435     0DC8  00A0               	movwf	___fladd@b
  4436     0DC9                     l3028:
  4437     0DC9  17A2               	bsf	___fladd@b+2,7
  4438     0DCA                     l3030:
  4439     0DCA  01A3               	clrf	___fladd@b+3
  4440     0DCB  2DD4               	goto	l736
  4441     0DCC                     l3032:
  4442     0DCC  3000               	movlw	0
  4443     0DCD  00A3               	movwf	___fladd@b+3
  4444     0DCE  3000               	movlw	0
  4445     0DCF  00A2               	movwf	___fladd@b+2
  4446     0DD0  3000               	movlw	0
  4447     0DD1  00A1               	movwf	___fladd@b+1
  4448     0DD2  3000               	movlw	0
  4449     0DD3  00A0               	movwf	___fladd@b
  4450     0DD4                     l736:
  4451     0DD4  0827               	movf	___fladd@a+3,w
  4452     0DD5  00F3               	movwf	___fladd@aexp
  4453     0DD6                     l3034:
  4454     0DD6  3080               	movlw	128
  4455     0DD7  05F3               	andwf	___fladd@aexp,f
  4456     0DD8                     l3036:
  4457     0DD8  0873               	movf	___fladd@aexp,w
  4458     0DD9  0672               	xorwf	___fladd@signs,w
  4459     0DDA  1903               	skipnz
  4460     0DDB  2DDD               	goto	u3541
  4461     0DDC  2DDE               	goto	u3540
  4462     0DDD                     u3541:
  4463     0DDD  2DDF               	goto	l3040
  4464     0DDE                     u3540:
  4465     0DDE                     l3038:
  4466     0DDE  1772               	bsf	___fladd@signs,6
  4467     0DDF                     l3040:
  4468     0DDF  0827               	movf	___fladd@a+3,w
  4469     0DE0  00A8               	movwf	??___fladd
  4470     0DE1  0728               	addwf	??___fladd,w
  4471     0DE2  00F3               	movwf	___fladd@aexp
  4472     0DE3                     l3042:
  4473     0DE3  1FA6               	btfss	___fladd@a+2,7
  4474     0DE4  2DE6               	goto	u3551
  4475     0DE5  2DE7               	goto	u3550
  4476     0DE6                     u3551:
  4477     0DE6  2DE8               	goto	l3046
  4478     0DE7                     u3550:
  4479     0DE7                     l3044:
  4480     0DE7  1473               	bsf	___fladd@aexp,0
  4481     0DE8                     l3046:
  4482     0DE8  0873               	movf	___fladd@aexp,w
  4483     0DE9  1903               	btfsc	3,2
  4484     0DEA  2DEC               	goto	u3561
  4485     0DEB  2DED               	goto	u3560
  4486     0DEC                     u3561:
  4487     0DEC  2DFD               	goto	l3056
  4488     0DED                     u3560:
  4489     0DED                     l3048:
  4490     0DED  0A73               	incf	___fladd@aexp,w
  4491     0DEE  1D03               	btfss	3,2
  4492     0DEF  2DF1               	goto	u3571
  4493     0DF0  2DF2               	goto	u3570
  4494     0DF1                     u3571:
  4495     0DF1  2DFA               	goto	l3052
  4496     0DF2                     u3570:
  4497     0DF2                     l3050:
  4498     0DF2  3000               	movlw	0
  4499     0DF3  00A7               	movwf	___fladd@a+3
  4500     0DF4  3000               	movlw	0
  4501     0DF5  00A6               	movwf	___fladd@a+2
  4502     0DF6  3000               	movlw	0
  4503     0DF7  00A5               	movwf	___fladd@a+1
  4504     0DF8  3000               	movlw	0
  4505     0DF9  00A4               	movwf	___fladd@a
  4506     0DFA                     l3052:
  4507     0DFA  17A6               	bsf	___fladd@a+2,7
  4508     0DFB                     l3054:
  4509     0DFB  01A7               	clrf	___fladd@a+3
  4510     0DFC  2E05               	goto	l741
  4511     0DFD                     l3056:
  4512     0DFD  3000               	movlw	0
  4513     0DFE  00A7               	movwf	___fladd@a+3
  4514     0DFF  3000               	movlw	0
  4515     0E00  00A6               	movwf	___fladd@a+2
  4516     0E01  3000               	movlw	0
  4517     0E02  00A5               	movwf	___fladd@a+1
  4518     0E03  3000               	movlw	0
  4519     0E04  00A4               	movwf	___fladd@a
  4520     0E05                     l741:
  4521     0E05  0874               	movf	___fladd@bexp,w
  4522     0E06  0273               	subwf	___fladd@aexp,w
  4523     0E07  1803               	skipnc
  4524     0E08  2E0A               	goto	u3581
  4525     0E09  2E0B               	goto	u3580
  4526     0E0A                     u3581:
  4527     0E0A  2E2F               	goto	l3092
  4528     0E0B                     u3580:
  4529     0E0B                     l3058:
  4530     0E0B  1F72               	btfss	___fladd@signs,6
  4531     0E0C  2E0E               	goto	u3591
  4532     0E0D  2E0F               	goto	u3590
  4533     0E0E                     u3591:
  4534     0E0E  2E11               	goto	l3062
  4535     0E0F                     u3590:
  4536     0E0F                     l3060:
  4537     0E0F  3080               	movlw	128
  4538     0E10  06F2               	xorwf	___fladd@signs,f
  4539     0E11                     l3062:
  4540     0E11  0874               	movf	___fladd@bexp,w
  4541     0E12  00F5               	movwf	___fladd@grs
  4542     0E13                     l3064:
  4543     0E13  0873               	movf	___fladd@aexp,w
  4544     0E14  00F4               	movwf	___fladd@bexp
  4545     0E15                     l3066:
  4546     0E15  0875               	movf	___fladd@grs,w
  4547     0E16  00F3               	movwf	___fladd@aexp
  4548     0E17                     l3068:
  4549     0E17  0820               	movf	___fladd@b,w
  4550     0E18  00F5               	movwf	___fladd@grs
  4551     0E19                     l3070:
  4552     0E19  0824               	movf	___fladd@a,w
  4553     0E1A  00A0               	movwf	___fladd@b
  4554     0E1B                     l3072:
  4555     0E1B  0875               	movf	___fladd@grs,w
  4556     0E1C  00A4               	movwf	___fladd@a
  4557     0E1D                     l3074:
  4558     0E1D  0821               	movf	___fladd@b+1,w
  4559     0E1E  00F5               	movwf	___fladd@grs
  4560     0E1F                     l3076:
  4561     0E1F  0825               	movf	___fladd@a+1,w
  4562     0E20  00A1               	movwf	___fladd@b+1
  4563     0E21                     l3078:
  4564     0E21  0875               	movf	___fladd@grs,w
  4565     0E22  00A5               	movwf	___fladd@a+1
  4566     0E23                     l3080:
  4567     0E23  0822               	movf	___fladd@b+2,w
  4568     0E24  00F5               	movwf	___fladd@grs
  4569     0E25                     l3082:
  4570     0E25  0826               	movf	___fladd@a+2,w
  4571     0E26  00A2               	movwf	___fladd@b+2
  4572     0E27                     l3084:
  4573     0E27  0875               	movf	___fladd@grs,w
  4574     0E28  00A6               	movwf	___fladd@a+2
  4575     0E29                     l3086:
  4576     0E29  0823               	movf	___fladd@b+3,w
  4577     0E2A  00F5               	movwf	___fladd@grs
  4578     0E2B                     l3088:
  4579     0E2B  0827               	movf	___fladd@a+3,w
  4580     0E2C  00A3               	movwf	___fladd@b+3
  4581     0E2D                     l3090:
  4582     0E2D  0875               	movf	___fladd@grs,w
  4583     0E2E  00A7               	movwf	___fladd@a+3
  4584     0E2F                     l3092:
  4585     0E2F  01F5               	clrf	___fladd@grs
  4586     0E30                     l3094:
  4587     0E30  0873               	movf	___fladd@aexp,w
  4588     0E31  00A8               	movwf	??___fladd
  4589     0E32  01A9               	clrf	??___fladd+1
  4590     0E33  0829               	movf	??___fladd+1,w
  4591     0E34  00AB               	movwf	??___fladd+3
  4592     0E35  0874               	movf	___fladd@bexp,w
  4593     0E36  0228               	subwf	??___fladd,w
  4594     0E37  00AA               	movwf	??___fladd+2
  4595     0E38  1C03               	skipc
  4596     0E39  03AB               	decf	??___fladd+3,f
  4597     0E3A  082B               	movf	??___fladd+3,w
  4598     0E3B  3A80               	xorlw	128
  4599     0E3C  00FF               	movwf	btemp+1
  4600     0E3D  3080               	movlw	128
  4601     0E3E  027F               	subwf	btemp+1,w
  4602     0E3F  1D03               	skipz
  4603     0E40  2E43               	goto	u3605
  4604     0E41  301A               	movlw	26
  4605     0E42  022A               	subwf	??___fladd+2,w
  4606     0E43                     u3605:
  4607     0E43  1C03               	skipc
  4608     0E44  2E46               	goto	u3601
  4609     0E45  2E47               	goto	u3600
  4610     0E46                     u3601:
  4611     0E46  2E80               	goto	l3110
  4612     0E47                     u3600:
  4613     0E47                     l3096:
  4614     0E47  1283               	bcf	3,5	;RP0=0, select bank0
  4615     0E48  1303               	bcf	3,6	;RP1=0, select bank0
  4616     0E49  0823               	movf	___fladd@b+3,w
  4617     0E4A  0422               	iorwf	___fladd@b+2,w
  4618     0E4B  0421               	iorwf	___fladd@b+1,w
  4619     0E4C  0420               	iorwf	___fladd@b,w
  4620     0E4D  1D03               	skipz
  4621     0E4E  2E50               	goto	u3611
  4622     0E4F  2E52               	goto	u3610
  4623     0E50                     u3611:
  4624     0E50  3001               	movlw	1
  4625     0E51  2E53               	goto	u3620
  4626     0E52                     u3610:
  4627     0E52  3000               	movlw	0
  4628     0E53                     u3620:
  4629     0E53  00F5               	movwf	___fladd@grs
  4630     0E54  3000               	movlw	0
  4631     0E55  00A3               	movwf	___fladd@b+3
  4632     0E56  3000               	movlw	0
  4633     0E57  00A2               	movwf	___fladd@b+2
  4634     0E58  3000               	movlw	0
  4635     0E59  00A1               	movwf	___fladd@b+1
  4636     0E5A  3000               	movlw	0
  4637     0E5B  00A0               	movwf	___fladd@b
  4638     0E5C  0873               	movf	___fladd@aexp,w
  4639     0E5D  00F4               	movwf	___fladd@bexp
  4640     0E5E  2E86               	goto	l745
  4641     0E5F                     l747:
  4642     0E5F  1C75               	btfss	___fladd@grs,0
  4643     0E60  2E62               	goto	u3631
  4644     0E61  2E63               	goto	u3630
  4645     0E62                     u3631:
  4646     0E62  2E6C               	goto	l3100
  4647     0E63                     u3630:
  4648     0E63                     l3098:
  4649     0E63  0875               	movf	___fladd@grs,w
  4650     0E64  1283               	bcf	3,5	;RP0=0, select bank0
  4651     0E65  1303               	bcf	3,6	;RP1=0, select bank0
  4652     0E66  00A8               	movwf	??___fladd
  4653     0E67  1003               	clrc
  4654     0E68  0C28               	rrf	??___fladd,w
  4655     0E69  3801               	iorlw	1
  4656     0E6A  00F5               	movwf	___fladd@grs
  4657     0E6B  2E6E               	goto	l3102
  4658     0E6C                     l3100:
  4659     0E6C  1003               	clrc
  4660     0E6D  0CF5               	rrf	___fladd@grs,f
  4661     0E6E                     l3102:
  4662     0E6E  1283               	bcf	3,5	;RP0=0, select bank0
  4663     0E6F  1303               	bcf	3,6	;RP1=0, select bank0
  4664     0E70  1C20               	btfss	___fladd@b,0
  4665     0E71  2E73               	goto	u3641
  4666     0E72  2E74               	goto	u3640
  4667     0E73                     u3641:
  4668     0E73  2E75               	goto	l3106
  4669     0E74                     u3640:
  4670     0E74                     l3104:
  4671     0E74  17F5               	bsf	___fladd@grs,7
  4672     0E75                     l3106:
  4673     0E75  3001               	movlw	1
  4674     0E76  00A8               	movwf	??___fladd
  4675     0E77                     u3655:
  4676     0E77  0D23               	rlf	___fladd@b+3,w
  4677     0E78  0CA3               	rrf	___fladd@b+3,f
  4678     0E79  0CA2               	rrf	___fladd@b+2,f
  4679     0E7A  0CA1               	rrf	___fladd@b+1,f
  4680     0E7B  0CA0               	rrf	___fladd@b,f
  4681     0E7C  0BA8               	decfsz	??___fladd& (0+127),f
  4682     0E7D  2E77               	goto	u3655
  4683     0E7E                     l3108:
  4684     0E7E  3001               	movlw	1
  4685     0E7F  07F4               	addwf	___fladd@bexp,f
  4686     0E80                     l3110:
  4687     0E80  0873               	movf	___fladd@aexp,w
  4688     0E81  0274               	subwf	___fladd@bexp,w
  4689     0E82  1C03               	skipc
  4690     0E83  2E85               	goto	u3661
  4691     0E84  2E86               	goto	u3660
  4692     0E85                     u3661:
  4693     0E85  2E5F               	goto	l747
  4694     0E86                     u3660:
  4695     0E86                     l745:
  4696     0E86  1B72               	btfsc	___fladd@signs,6
  4697     0E87  2E89               	goto	u3671
  4698     0E88  2E8A               	goto	u3670
  4699     0E89                     u3671:
  4700     0E89  2ED5               	goto	l3136
  4701     0E8A                     u3670:
  4702     0E8A                     l3112:
  4703     0E8A  0874               	movf	___fladd@bexp,w
  4704     0E8B  1D03               	btfss	3,2
  4705     0E8C  2E8E               	goto	u3681
  4706     0E8D  2E8F               	goto	u3680
  4707     0E8E                     u3681:
  4708     0E8E  2E9A               	goto	l3118
  4709     0E8F                     u3680:
  4710     0E8F                     l3114:
  4711     0E8F  3000               	movlw	0
  4712     0E90  1283               	bcf	3,5	;RP0=0, select bank0
  4713     0E91  1303               	bcf	3,6	;RP1=0, select bank0
  4714     0E92  00A3               	movwf	?___fladd+3
  4715     0E93  3000               	movlw	0
  4716     0E94  00A2               	movwf	?___fladd+2
  4717     0E95  3000               	movlw	0
  4718     0E96  00A1               	movwf	?___fladd+1
  4719     0E97  3000               	movlw	0
  4720     0E98  00A0               	movwf	?___fladd
  4721     0E99  2FFF               	goto	l754
  4722     0E9A                     l3118:
  4723     0E9A  1283               	bcf	3,5	;RP0=0, select bank0
  4724     0E9B  1303               	bcf	3,6	;RP1=0, select bank0
  4725     0E9C  0824               	movf	___fladd@a,w
  4726     0E9D  07A0               	addwf	___fladd@b,f
  4727     0E9E  0825               	movf	___fladd@a+1,w
  4728     0E9F  1103               	clrz
  4729     0EA0  1803               	skipnc
  4730     0EA1  3E01               	addlw	1
  4731     0EA2  1903               	skipnz
  4732     0EA3  2EA5               	goto	u3691
  4733     0EA4  07A1               	addwf	___fladd@b+1,f
  4734     0EA5                     u3691:
  4735     0EA5  0826               	movf	___fladd@a+2,w
  4736     0EA6  1103               	clrz
  4737     0EA7  1803               	skipnc
  4738     0EA8  3E01               	addlw	1
  4739     0EA9  1903               	skipnz
  4740     0EAA  2EAC               	goto	u3692
  4741     0EAB  07A2               	addwf	___fladd@b+2,f
  4742     0EAC                     u3692:
  4743     0EAC  0827               	movf	___fladd@a+3,w
  4744     0EAD  1103               	clrz
  4745     0EAE  1803               	skipnc
  4746     0EAF  3E01               	addlw	1
  4747     0EB0  1903               	skipnz
  4748     0EB1  2EB3               	goto	u3693
  4749     0EB2  07A3               	addwf	___fladd@b+3,f
  4750     0EB3                     u3693:
  4751     0EB3                     l3120:
  4752     0EB3  1C23               	btfss	___fladd@b+3,0
  4753     0EB4  2EB6               	goto	u3701
  4754     0EB5  2EB7               	goto	u3700
  4755     0EB6                     u3701:
  4756     0EB6  2F8B               	goto	l3172
  4757     0EB7                     u3700:
  4758     0EB7                     l3122:
  4759     0EB7  1C75               	btfss	___fladd@grs,0
  4760     0EB8  2EBA               	goto	u3711
  4761     0EB9  2EBB               	goto	u3710
  4762     0EBA                     u3711:
  4763     0EBA  2EC2               	goto	l3126
  4764     0EBB                     u3710:
  4765     0EBB                     l3124:
  4766     0EBB  0875               	movf	___fladd@grs,w
  4767     0EBC  00A8               	movwf	??___fladd
  4768     0EBD  1003               	clrc
  4769     0EBE  0C28               	rrf	??___fladd,w
  4770     0EBF  3801               	iorlw	1
  4771     0EC0  00F5               	movwf	___fladd@grs
  4772     0EC1  2EC4               	goto	l3128
  4773     0EC2                     l3126:
  4774     0EC2  1003               	clrc
  4775     0EC3  0CF5               	rrf	___fladd@grs,f
  4776     0EC4                     l3128:
  4777     0EC4  1C20               	btfss	___fladd@b,0
  4778     0EC5  2EC7               	goto	u3721
  4779     0EC6  2EC8               	goto	u3720
  4780     0EC7                     u3721:
  4781     0EC7  2EC9               	goto	l3132
  4782     0EC8                     u3720:
  4783     0EC8                     l3130:
  4784     0EC8  17F5               	bsf	___fladd@grs,7
  4785     0EC9                     l3132:
  4786     0EC9  3001               	movlw	1
  4787     0ECA  00A8               	movwf	??___fladd
  4788     0ECB                     u3735:
  4789     0ECB  0D23               	rlf	___fladd@b+3,w
  4790     0ECC  0CA3               	rrf	___fladd@b+3,f
  4791     0ECD  0CA2               	rrf	___fladd@b+2,f
  4792     0ECE  0CA1               	rrf	___fladd@b+1,f
  4793     0ECF  0CA0               	rrf	___fladd@b,f
  4794     0ED0  0BA8               	decfsz	??___fladd& (0+127),f
  4795     0ED1  2ECB               	goto	u3735
  4796     0ED2                     l3134:
  4797     0ED2  3001               	movlw	1
  4798     0ED3  07F4               	addwf	___fladd@bexp,f
  4799     0ED4  2F8B               	goto	l3172
  4800     0ED5                     l3136:
  4801     0ED5  1283               	bcf	3,5	;RP0=0, select bank0
  4802     0ED6  1303               	bcf	3,6	;RP1=0, select bank0
  4803     0ED7  0823               	movf	___fladd@b+3,w
  4804     0ED8  3A80               	xorlw	128
  4805     0ED9  00FF               	movwf	btemp+1
  4806     0EDA  0827               	movf	___fladd@a+3,w
  4807     0EDB  3A80               	xorlw	128
  4808     0EDC  027F               	subwf	btemp+1,w
  4809     0EDD  1D03               	skipz
  4810     0EDE  2EE9               	goto	u3743
  4811     0EDF  0826               	movf	___fladd@a+2,w
  4812     0EE0  0222               	subwf	___fladd@b+2,w
  4813     0EE1  1D03               	skipz
  4814     0EE2  2EE9               	goto	u3743
  4815     0EE3  0825               	movf	___fladd@a+1,w
  4816     0EE4  0221               	subwf	___fladd@b+1,w
  4817     0EE5  1D03               	skipz
  4818     0EE6  2EE9               	goto	u3743
  4819     0EE7  0824               	movf	___fladd@a,w
  4820     0EE8  0220               	subwf	___fladd@b,w
  4821     0EE9                     u3743:
  4822     0EE9  1803               	skipnc
  4823     0EEA  2EEC               	goto	u3741
  4824     0EEB  2EED               	goto	u3740
  4825     0EEC                     u3741:
  4826     0EEC  2F44               	goto	l3148
  4827     0EED                     u3740:
  4828     0EED                     l3138:
  4829     0EED  30FF               	movlw	255
  4830     0EEE  00A8               	movwf	??___fladd
  4831     0EEF  30FF               	movlw	255
  4832     0EF0  00A9               	movwf	??___fladd+1
  4833     0EF1  30FF               	movlw	255
  4834     0EF2  00AA               	movwf	??___fladd+2
  4835     0EF3  30FF               	movlw	255
  4836     0EF4  00AB               	movwf	??___fladd+3
  4837     0EF5  0824               	movf	___fladd@a,w
  4838     0EF6  00AC               	movwf	??___fladd+4
  4839     0EF7  0825               	movf	___fladd@a+1,w
  4840     0EF8  00AD               	movwf	??___fladd+5
  4841     0EF9  0826               	movf	___fladd@a+2,w
  4842     0EFA  00AE               	movwf	??___fladd+6
  4843     0EFB  0827               	movf	___fladd@a+3,w
  4844     0EFC  00AF               	movwf	??___fladd+7
  4845     0EFD  0820               	movf	___fladd@b,w
  4846     0EFE  02AC               	subwf	??___fladd+4,f
  4847     0EFF  0821               	movf	___fladd@b+1,w
  4848     0F00  1C03               	skipc
  4849     0F01  0F21               	incfsz	___fladd@b+1,w
  4850     0F02  2F04               	goto	u3751
  4851     0F03  2F05               	goto	u3752
  4852     0F04                     u3751:
  4853     0F04  02AD               	subwf	??___fladd+5,f
  4854     0F05                     u3752:
  4855     0F05  0822               	movf	___fladd@b+2,w
  4856     0F06  1C03               	skipc
  4857     0F07  0F22               	incfsz	___fladd@b+2,w
  4858     0F08  2F0A               	goto	u3753
  4859     0F09  2F0B               	goto	u3754
  4860     0F0A                     u3753:
  4861     0F0A  02AE               	subwf	??___fladd+6,f
  4862     0F0B                     u3754:
  4863     0F0B  0823               	movf	___fladd@b+3,w
  4864     0F0C  1C03               	skipc
  4865     0F0D  0F23               	incfsz	___fladd@b+3,w
  4866     0F0E  2F10               	goto	u3755
  4867     0F0F  2F11               	goto	u3756
  4868     0F10                     u3755:
  4869     0F10  02AF               	subwf	??___fladd+7,f
  4870     0F11                     u3756:
  4871     0F11  082C               	movf	??___fladd+4,w
  4872     0F12  07A8               	addwf	??___fladd,f
  4873     0F13  082D               	movf	??___fladd+5,w
  4874     0F14  1803               	skipnc
  4875     0F15  0F2D               	incfsz	??___fladd+5,w
  4876     0F16  2F18               	goto	u3760
  4877     0F17  2F19               	goto	u3761
  4878     0F18                     u3760:
  4879     0F18  07A9               	addwf	??___fladd+1,f
  4880     0F19                     u3761:
  4881     0F19  082E               	movf	??___fladd+6,w
  4882     0F1A  1803               	skipnc
  4883     0F1B  0F2E               	incfsz	??___fladd+6,w
  4884     0F1C  2F1E               	goto	u3762
  4885     0F1D  2F1F               	goto	u3763
  4886     0F1E                     u3762:
  4887     0F1E  07AA               	addwf	??___fladd+2,f
  4888     0F1F                     u3763:
  4889     0F1F  082F               	movf	??___fladd+7,w
  4890     0F20  1803               	skipnc
  4891     0F21  0A2F               	incf	??___fladd+7,w
  4892     0F22  07AB               	addwf	??___fladd+3,f
  4893     0F23  082B               	movf	??___fladd+3,w
  4894     0F24  00A3               	movwf	___fladd@b+3
  4895     0F25  082A               	movf	??___fladd+2,w
  4896     0F26  00A2               	movwf	___fladd@b+2
  4897     0F27  0829               	movf	??___fladd+1,w
  4898     0F28  00A1               	movwf	___fladd@b+1
  4899     0F29  0828               	movf	??___fladd,w
  4900     0F2A  00A0               	movwf	___fladd@b
  4901     0F2B                     l3140:
  4902     0F2B  3080               	movlw	128
  4903     0F2C  06F2               	xorwf	___fladd@signs,f
  4904     0F2D                     l3142:
  4905     0F2D  0375               	decf	___fladd@grs,w
  4906     0F2E  3AFF               	xorlw	255
  4907     0F2F  00F5               	movwf	___fladd@grs
  4908     0F30                     l3144:
  4909     0F30  0875               	movf	___fladd@grs,w
  4910     0F31  1D03               	btfss	3,2
  4911     0F32  2F34               	goto	u3771
  4912     0F33  2F35               	goto	u3770
  4913     0F34                     u3771:
  4914     0F34  2F52               	goto	l762
  4915     0F35                     u3770:
  4916     0F35                     l3146:
  4917     0F35  3001               	movlw	1
  4918     0F36  07A0               	addwf	___fladd@b,f
  4919     0F37  3000               	movlw	0
  4920     0F38  1803               	skipnc
  4921     0F39  3001               	movlw	1
  4922     0F3A  07A1               	addwf	___fladd@b+1,f
  4923     0F3B  3000               	movlw	0
  4924     0F3C  1803               	skipnc
  4925     0F3D  3001               	movlw	1
  4926     0F3E  07A2               	addwf	___fladd@b+2,f
  4927     0F3F  3000               	movlw	0
  4928     0F40  1803               	skipnc
  4929     0F41  3001               	movlw	1
  4930     0F42  07A3               	addwf	___fladd@b+3,f
  4931     0F43  2F52               	goto	l762
  4932     0F44                     l3148:
  4933     0F44  0824               	movf	___fladd@a,w
  4934     0F45  02A0               	subwf	___fladd@b,f
  4935     0F46  0825               	movf	___fladd@a+1,w
  4936     0F47  1C03               	skipc
  4937     0F48  0F25               	incfsz	___fladd@a+1,w
  4938     0F49  02A1               	subwf	___fladd@b+1,f
  4939     0F4A  0826               	movf	___fladd@a+2,w
  4940     0F4B  1C03               	skipc
  4941     0F4C  0F26               	incfsz	___fladd@a+2,w
  4942     0F4D  02A2               	subwf	___fladd@b+2,f
  4943     0F4E  0827               	movf	___fladd@a+3,w
  4944     0F4F  1C03               	skipc
  4945     0F50  0F27               	incfsz	___fladd@a+3,w
  4946     0F51  02A3               	subwf	___fladd@b+3,f
  4947     0F52                     l762:
  4948     0F52  0823               	movf	___fladd@b+3,w
  4949     0F53  0422               	iorwf	___fladd@b+2,w
  4950     0F54  0421               	iorwf	___fladd@b+1,w
  4951     0F55  0420               	iorwf	___fladd@b,w
  4952     0F56  1D03               	skipz
  4953     0F57  2F59               	goto	u3781
  4954     0F58  2F5A               	goto	u3780
  4955     0F59                     u3781:
  4956     0F59  2F87               	goto	l3170
  4957     0F5A                     u3780:
  4958     0F5A                     l3150:
  4959     0F5A  0875               	movf	___fladd@grs,w
  4960     0F5B  1D03               	btfss	3,2
  4961     0F5C  2F5E               	goto	u3791
  4962     0F5D  2F5F               	goto	u3790
  4963     0F5E                     u3791:
  4964     0F5E  2F87               	goto	l3170
  4965     0F5F                     u3790:
  4966     0F5F                     l3152:
  4967     0F5F  3000               	movlw	0
  4968     0F60  00A3               	movwf	?___fladd+3
  4969     0F61  3000               	movlw	0
  4970     0F62  00A2               	movwf	?___fladd+2
  4971     0F63  3000               	movlw	0
  4972     0F64  00A1               	movwf	?___fladd+1
  4973     0F65  3000               	movlw	0
  4974     0F66  00A0               	movwf	?___fladd
  4975     0F67  2FFF               	goto	l754
  4976     0F68                     l3156:
  4977     0F68  3001               	movlw	1
  4978     0F69  00A8               	movwf	??___fladd
  4979     0F6A                     u3805:
  4980     0F6A  1003               	clrc
  4981     0F6B  0DA0               	rlf	___fladd@b,f
  4982     0F6C  0DA1               	rlf	___fladd@b+1,f
  4983     0F6D  0DA2               	rlf	___fladd@b+2,f
  4984     0F6E  0DA3               	rlf	___fladd@b+3,f
  4985     0F6F  0BA8               	decfsz	??___fladd,f
  4986     0F70  2F6A               	goto	u3805
  4987     0F71                     l3158:
  4988     0F71  1FF5               	btfss	___fladd@grs,7
  4989     0F72  2F74               	goto	u3811
  4990     0F73  2F75               	goto	u3810
  4991     0F74                     u3811:
  4992     0F74  2F76               	goto	l766
  4993     0F75                     u3810:
  4994     0F75                     l3160:
  4995     0F75  1420               	bsf	___fladd@b,0
  4996     0F76                     l766:
  4997     0F76  1C75               	btfss	___fladd@grs,0
  4998     0F77  2F79               	goto	u3821
  4999     0F78  2F7A               	goto	u3820
  5000     0F79                     u3821:
  5001     0F79  2F7E               	goto	l3164
  5002     0F7A                     u3820:
  5003     0F7A                     l3162:
  5004     0F7A  1403               	setc
  5005     0F7B  0D75               	rlf	___fladd@grs,w
  5006     0F7C  00F5               	movwf	___fladd@grs
  5007     0F7D  2F80               	goto	l3166
  5008     0F7E                     l3164:
  5009     0F7E  1003               	clrc
  5010     0F7F  0DF5               	rlf	___fladd@grs,f
  5011     0F80                     l3166:
  5012     0F80  0874               	movf	___fladd@bexp,w
  5013     0F81  1903               	btfsc	3,2
  5014     0F82  2F84               	goto	u3831
  5015     0F83  2F85               	goto	u3830
  5016     0F84                     u3831:
  5017     0F84  2F87               	goto	l3170
  5018     0F85                     u3830:
  5019     0F85                     l3168:
  5020     0F85  3001               	movlw	1
  5021     0F86  02F4               	subwf	___fladd@bexp,f
  5022     0F87                     l3170:
  5023     0F87  1FA2               	btfss	___fladd@b+2,7
  5024     0F88  2F8A               	goto	u3841
  5025     0F89  2F8B               	goto	u3840
  5026     0F8A                     u3841:
  5027     0F8A  2F68               	goto	l3156
  5028     0F8B                     u3840:
  5029     0F8B                     l3172:
  5030     0F8B  01F3               	clrf	___fladd@aexp
  5031     0F8C                     l3174:
  5032     0F8C  1FF5               	btfss	___fladd@grs,7
  5033     0F8D  2F8F               	goto	u3851
  5034     0F8E  2F90               	goto	u3850
  5035     0F8F                     u3851:
  5036     0F8F  2F9E               	goto	l3182
  5037     0F90                     u3850:
  5038     0F90                     l3176:
  5039     0F90  0875               	movf	___fladd@grs,w
  5040     0F91  397F               	andlw	127
  5041     0F92  1903               	btfsc	3,2
  5042     0F93  2F95               	goto	u3861
  5043     0F94  2F96               	goto	u3860
  5044     0F95                     u3861:
  5045     0F95  2F99               	goto	l772
  5046     0F96                     u3860:
  5047     0F96                     l3178:
  5048     0F96  3001               	movlw	1
  5049     0F97  00F3               	movwf	___fladd@aexp
  5050     0F98  2F9E               	goto	l3182
  5051     0F99                     l772:
  5052     0F99  1C20               	btfss	___fladd@b,0
  5053     0F9A  2F9C               	goto	u3871
  5054     0F9B  2F9D               	goto	u3870
  5055     0F9C                     u3871:
  5056     0F9C  2F9E               	goto	l3182
  5057     0F9D                     u3870:
  5058     0F9D  2F96               	goto	l3178
  5059     0F9E                     l3182:
  5060     0F9E  0873               	movf	___fladd@aexp,w
  5061     0F9F  1903               	btfsc	3,2
  5062     0FA0  2FA2               	goto	u3881
  5063     0FA1  2FA3               	goto	u3880
  5064     0FA2                     u3881:
  5065     0FA2  2FD5               	goto	l775
  5066     0FA3                     u3880:
  5067     0FA3                     l3184:
  5068     0FA3  3001               	movlw	1
  5069     0FA4  07A0               	addwf	___fladd@b,f
  5070     0FA5  3000               	movlw	0
  5071     0FA6  1803               	skipnc
  5072     0FA7  3001               	movlw	1
  5073     0FA8  07A1               	addwf	___fladd@b+1,f
  5074     0FA9  3000               	movlw	0
  5075     0FAA  1803               	skipnc
  5076     0FAB  3001               	movlw	1
  5077     0FAC  07A2               	addwf	___fladd@b+2,f
  5078     0FAD  3000               	movlw	0
  5079     0FAE  1803               	skipnc
  5080     0FAF  3001               	movlw	1
  5081     0FB0  07A3               	addwf	___fladd@b+3,f
  5082     0FB1                     l3186:
  5083     0FB1  1C23               	btfss	___fladd@b+3,0
  5084     0FB2  2FB4               	goto	u3891
  5085     0FB3  2FB5               	goto	u3890
  5086     0FB4                     u3891:
  5087     0FB4  2FD5               	goto	l775
  5088     0FB5                     u3890:
  5089     0FB5                     l3188:
  5090     0FB5  0820               	movf	___fladd@b,w
  5091     0FB6  00A8               	movwf	??___fladd
  5092     0FB7  0821               	movf	___fladd@b+1,w
  5093     0FB8  00A9               	movwf	??___fladd+1
  5094     0FB9  0822               	movf	___fladd@b+2,w
  5095     0FBA  00AA               	movwf	??___fladd+2
  5096     0FBB  0823               	movf	___fladd@b+3,w
  5097     0FBC  00AB               	movwf	??___fladd+3
  5098     0FBD  3001               	movlw	1
  5099     0FBE  00AC               	movwf	??___fladd+4
  5100     0FBF                     u3905:
  5101     0FBF  0D2B               	rlf	??___fladd+3,w
  5102     0FC0  0CAB               	rrf	??___fladd+3,f
  5103     0FC1  0CAA               	rrf	??___fladd+2,f
  5104     0FC2  0CA9               	rrf	??___fladd+1,f
  5105     0FC3  0CA8               	rrf	??___fladd,f
  5106     0FC4                     u3900:
  5107     0FC4  0BAC               	decfsz	??___fladd+4,f
  5108     0FC5  2FBF               	goto	u3905
  5109     0FC6  082B               	movf	??___fladd+3,w
  5110     0FC7  00A3               	movwf	___fladd@b+3
  5111     0FC8  082A               	movf	??___fladd+2,w
  5112     0FC9  00A2               	movwf	___fladd@b+2
  5113     0FCA  0829               	movf	??___fladd+1,w
  5114     0FCB  00A1               	movwf	___fladd@b+1
  5115     0FCC  0828               	movf	??___fladd,w
  5116     0FCD  00A0               	movwf	___fladd@b
  5117     0FCE  0A74               	incf	___fladd@bexp,w
  5118     0FCF  1903               	btfsc	3,2
  5119     0FD0  2FD2               	goto	u3911
  5120     0FD1  2FD3               	goto	u3910
  5121     0FD2                     u3911:
  5122     0FD2  2FD5               	goto	l775
  5123     0FD3                     u3910:
  5124     0FD3                     l3190:
  5125     0FD3  3001               	movlw	1
  5126     0FD4  07F4               	addwf	___fladd@bexp,f
  5127     0FD5                     l775:
  5128     0FD5  0A74               	incf	___fladd@bexp,w
  5129     0FD6  1903               	btfsc	3,2
  5130     0FD7  2FD9               	goto	u3921
  5131     0FD8  2FDA               	goto	u3920
  5132     0FD9                     u3921:
  5133     0FD9  2FDF               	goto	l3194
  5134     0FDA                     u3920:
  5135     0FDA                     l3192:
  5136     0FDA  0874               	movf	___fladd@bexp,w
  5137     0FDB  1D03               	btfss	3,2
  5138     0FDC  2FDE               	goto	u3931
  5139     0FDD  2FDF               	goto	u3930
  5140     0FDE                     u3931:
  5141     0FDE  2FED               	goto	l3200
  5142     0FDF                     u3930:
  5143     0FDF                     l3194:
  5144     0FDF  3000               	movlw	0
  5145     0FE0  00A3               	movwf	___fladd@b+3
  5146     0FE1  3000               	movlw	0
  5147     0FE2  00A2               	movwf	___fladd@b+2
  5148     0FE3  3000               	movlw	0
  5149     0FE4  00A1               	movwf	___fladd@b+1
  5150     0FE5  3000               	movlw	0
  5151     0FE6  00A0               	movwf	___fladd@b
  5152     0FE7                     l3196:
  5153     0FE7  0874               	movf	___fladd@bexp,w
  5154     0FE8  1D03               	btfss	3,2
  5155     0FE9  2FEB               	goto	u3941
  5156     0FEA  2FEC               	goto	u3940
  5157     0FEB                     u3941:
  5158     0FEB  2FED               	goto	l3200
  5159     0FEC                     u3940:
  5160     0FEC                     l3198:
  5161     0FEC  01F2               	clrf	___fladd@signs
  5162     0FED                     l3200:
  5163     0FED  1C74               	btfss	___fladd@bexp,0
  5164     0FEE  2FF0               	goto	u3951
  5165     0FEF  2FF1               	goto	u3950
  5166     0FF0                     u3951:
  5167     0FF0  2FF3               	goto	l3204
  5168     0FF1                     u3950:
  5169     0FF1                     l3202:
  5170     0FF1  17A2               	bsf	___fladd@b+2,7
  5171     0FF2  2FF5               	goto	l783
  5172     0FF3                     l3204:
  5173     0FF3  307F               	movlw	127
  5174     0FF4  05A2               	andwf	___fladd@b+2,f
  5175     0FF5                     l783:
  5176     0FF5  0874               	movf	___fladd@bexp,w
  5177     0FF6  00A8               	movwf	??___fladd
  5178     0FF7  1003               	clrc
  5179     0FF8  0C28               	rrf	??___fladd,w
  5180     0FF9  00A3               	movwf	___fladd@b+3
  5181     0FFA                     l3206:
  5182     0FFA  1FF2               	btfss	___fladd@signs,7
  5183     0FFB  2FFD               	goto	u3961
  5184     0FFC  2FFE               	goto	u3960
  5185     0FFD                     u3961:
  5186     0FFD  2FFF               	goto	l784
  5187     0FFE                     u3960:
  5188     0FFE                     l3208:
  5189     0FFE  17A3               	bsf	___fladd@b+3,7
  5190     0FFF                     l784:
  5191     0FFF                     l754:
  5192     0FFF  0008               	return
  5193     1000                     __end_of___fladd:
  5194                           
  5195                           	psect	text10
  5196     0422                     __ptext10:	
  5197 ;; *************** function ___flmul *****************
  5198 ;; Defined at:
  5199 ;;		line 8 in file "C:\Program Files\Microchip\xc8\v3.00\pic\sources\c99\common\sprcmul.c"
  5200 ;; Parameters:    Size  Location     Type
  5201 ;;  b               4   10[BANK0 ] unsigned char 
  5202 ;;  a               4   14[BANK0 ] unsigned char 
  5203 ;; Auto vars:     Size  Location     Type
  5204 ;;  prod            4   30[BANK0 ] struct .
  5205 ;;  grs             4   25[BANK0 ] unsigned long 
  5206 ;;  temp            2   34[BANK0 ] struct .
  5207 ;;  bexp            1   29[BANK0 ] unsigned char 
  5208 ;;  aexp            1   24[BANK0 ] unsigned char 
  5209 ;;  sign            1   23[BANK0 ] unsigned char 
  5210 ;; Return value:  Size  Location     Type
  5211 ;;                  4   10[BANK0 ] unsigned char 
  5212 ;; Registers used:
  5213 ;;		wreg, status,2, status,0, btemp+1, pclath, cstack
  5214 ;; Tracked objects:
  5215 ;;		On entry : 0/0
  5216 ;;		On exit  : 0/0
  5217 ;;		Unchanged: 0/0
  5218 ;; Data sizes:     COMMON   BANK0   BANK1   BANK3   BANK2
  5219 ;;      Params:         0       8       0       0       0
  5220 ;;      Locals:         0      13       0       0       0
  5221 ;;      Temps:          0       5       0       0       0
  5222 ;;      Totals:         0      26       0       0       0
  5223 ;;Total ram usage:       26 bytes
  5224 ;; Hardware stack levels used: 1
  5225 ;; Hardware stack levels required when called: 2
  5226 ;; This function calls:
  5227 ;;		__Umul8_16
  5228 ;; This function is called by:
  5229 ;;		_start
  5230 ;; This function uses a non-reentrant model
  5231 ;;
  5232                           
  5233     0422                     ___flmul:	
  5234                           ;psect for function ___flmul
  5235                           
  5236     0422                     l3416:	
  5237                           ;incstack = 0
  5238                           ; Regs used in ___flmul: [wreg+status,2+status,0+btemp+1+pclath+cstack]
  5239                           
  5240     0422  1283               	bcf	3,5	;RP0=0, select bank0
  5241     0423  1303               	bcf	3,6	;RP1=0, select bank0
  5242     0424  082D               	movf	___flmul@b+3,w
  5243     0425  00B7               	movwf	___flmul@sign
  5244     0426                     l3418:
  5245     0426  3080               	movlw	128
  5246     0427  05B7               	andwf	___flmul@sign,f
  5247     0428                     l3420:
  5248     0428  082D               	movf	___flmul@b+3,w
  5249     0429  00B2               	movwf	??___flmul
  5250     042A  0732               	addwf	??___flmul,w
  5251     042B  00BD               	movwf	___flmul@bexp
  5252     042C                     l3422:
  5253     042C  1FAC               	btfss	___flmul@b+2,7
  5254     042D  2C2F               	goto	u4401
  5255     042E  2C30               	goto	u4400
  5256     042F                     u4401:
  5257     042F  2C31               	goto	l3426
  5258     0430                     u4400:
  5259     0430                     l3424:
  5260     0430  143D               	bsf	___flmul@bexp,0
  5261     0431                     l3426:
  5262     0431  083D               	movf	___flmul@bexp,w
  5263     0432  1903               	btfsc	3,2
  5264     0433  2C35               	goto	u4411
  5265     0434  2C36               	goto	u4410
  5266     0435                     u4411:
  5267     0435  2C45               	goto	l3434
  5268     0436                     u4410:
  5269     0436                     l3428:
  5270     0436  0A3D               	incf	___flmul@bexp,w
  5271     0437  1D03               	btfss	3,2
  5272     0438  2C3A               	goto	u4421
  5273     0439  2C3B               	goto	u4420
  5274     043A                     u4421:
  5275     043A  2C43               	goto	l3432
  5276     043B                     u4420:
  5277     043B                     l3430:
  5278     043B  3000               	movlw	0
  5279     043C  00AD               	movwf	___flmul@b+3
  5280     043D  3000               	movlw	0
  5281     043E  00AC               	movwf	___flmul@b+2
  5282     043F  3000               	movlw	0
  5283     0440  00AB               	movwf	___flmul@b+1
  5284     0441  3000               	movlw	0
  5285     0442  00AA               	movwf	___flmul@b
  5286     0443                     l3432:
  5287     0443  17AC               	bsf	___flmul@b+2,7
  5288     0444  2C4D               	goto	l3436
  5289     0445                     l3434:
  5290     0445  3000               	movlw	0
  5291     0446  00AD               	movwf	___flmul@b+3
  5292     0447  3000               	movlw	0
  5293     0448  00AC               	movwf	___flmul@b+2
  5294     0449  3000               	movlw	0
  5295     044A  00AB               	movwf	___flmul@b+1
  5296     044B  3000               	movlw	0
  5297     044C  00AA               	movwf	___flmul@b
  5298     044D                     l3436:
  5299     044D  0831               	movf	___flmul@a+3,w
  5300     044E  3980               	andlw	128
  5301     044F  06B7               	xorwf	___flmul@sign,f
  5302     0450                     l3438:
  5303     0450  0831               	movf	___flmul@a+3,w
  5304     0451  00B2               	movwf	??___flmul
  5305     0452  0732               	addwf	??___flmul,w
  5306     0453  00B8               	movwf	___flmul@aexp
  5307     0454                     l3440:
  5308     0454  1FB0               	btfss	___flmul@a+2,7
  5309     0455  2C57               	goto	u4431
  5310     0456  2C58               	goto	u4430
  5311     0457                     u4431:
  5312     0457  2C59               	goto	l3444
  5313     0458                     u4430:
  5314     0458                     l3442:
  5315     0458  1438               	bsf	___flmul@aexp,0
  5316     0459                     l3444:
  5317     0459  0838               	movf	___flmul@aexp,w
  5318     045A  1903               	btfsc	3,2
  5319     045B  2C5D               	goto	u4441
  5320     045C  2C5E               	goto	u4440
  5321     045D                     u4441:
  5322     045D  2C6D               	goto	l3452
  5323     045E                     u4440:
  5324     045E                     l3446:
  5325     045E  0A38               	incf	___flmul@aexp,w
  5326     045F  1D03               	btfss	3,2
  5327     0460  2C62               	goto	u4451
  5328     0461  2C63               	goto	u4450
  5329     0462                     u4451:
  5330     0462  2C6B               	goto	l3450
  5331     0463                     u4450:
  5332     0463                     l3448:
  5333     0463  3000               	movlw	0
  5334     0464  00B1               	movwf	___flmul@a+3
  5335     0465  3000               	movlw	0
  5336     0466  00B0               	movwf	___flmul@a+2
  5337     0467  3000               	movlw	0
  5338     0468  00AF               	movwf	___flmul@a+1
  5339     0469  3000               	movlw	0
  5340     046A  00AE               	movwf	___flmul@a
  5341     046B                     l3450:
  5342     046B  17B0               	bsf	___flmul@a+2,7
  5343     046C  2C75               	goto	l3454
  5344     046D                     l3452:
  5345     046D  3000               	movlw	0
  5346     046E  00B1               	movwf	___flmul@a+3
  5347     046F  3000               	movlw	0
  5348     0470  00B0               	movwf	___flmul@a+2
  5349     0471  3000               	movlw	0
  5350     0472  00AF               	movwf	___flmul@a+1
  5351     0473  3000               	movlw	0
  5352     0474  00AE               	movwf	___flmul@a
  5353     0475                     l3454:
  5354     0475  0838               	movf	___flmul@aexp,w
  5355     0476  1903               	btfsc	3,2
  5356     0477  2C79               	goto	u4461
  5357     0478  2C7A               	goto	u4460
  5358     0479                     u4461:
  5359     0479  2C7F               	goto	l3458
  5360     047A                     u4460:
  5361     047A                     l3456:
  5362     047A  083D               	movf	___flmul@bexp,w
  5363     047B  1D03               	btfss	3,2
  5364     047C  2C7E               	goto	u4471
  5365     047D  2C7F               	goto	u4470
  5366     047E                     u4471:
  5367     047E  2C88               	goto	l3462
  5368     047F                     u4470:
  5369     047F                     l3458:
  5370     047F  3000               	movlw	0
  5371     0480  00AD               	movwf	?___flmul+3
  5372     0481  3000               	movlw	0
  5373     0482  00AC               	movwf	?___flmul+2
  5374     0483  3000               	movlw	0
  5375     0484  00AB               	movwf	?___flmul+1
  5376     0485  3000               	movlw	0
  5377     0486  00AA               	movwf	?___flmul
  5378     0487  2F63               	goto	l837
  5379     0488                     l3462:
  5380     0488  082A               	movf	___flmul@b,w
  5381     0489  00F2               	movwf	__Umul8_16@multiplicand
  5382     048A  0830               	movf	___flmul@a+2,w
  5383     048B  120A  158A  2002  120A  118A  	fcall	__Umul8_16
  5384     0490  0873               	movf	?__Umul8_16+1,w
  5385     0491  1283               	bcf	3,5	;RP0=0, select bank0
  5386     0492  1303               	bcf	3,6	;RP1=0, select bank0
  5387     0493  00C3               	movwf	___flmul@temp+1
  5388     0494  0872               	movf	?__Umul8_16,w
  5389     0495  00C2               	movwf	___flmul@temp
  5390     0496                     l3464:
  5391     0496  0842               	movf	___flmul@temp,w
  5392     0497  00B2               	movwf	??___flmul
  5393     0498  01B3               	clrf	??___flmul+1
  5394     0499  01B4               	clrf	??___flmul+2
  5395     049A  01B5               	clrf	??___flmul+3
  5396     049B  0835               	movf	??___flmul+3,w
  5397     049C  00BC               	movwf	___flmul@grs+3
  5398     049D  0834               	movf	??___flmul+2,w
  5399     049E  00BB               	movwf	___flmul@grs+2
  5400     049F  0833               	movf	??___flmul+1,w
  5401     04A0  00BA               	movwf	___flmul@grs+1
  5402     04A1  0832               	movf	??___flmul,w
  5403     04A2  00B9               	movwf	___flmul@grs
  5404     04A3                     l3466:
  5405     04A3  0843               	movf	___flmul@temp+1,w
  5406     04A4  00B2               	movwf	??___flmul
  5407     04A5  01B3               	clrf	??___flmul+1
  5408     04A6  01B4               	clrf	??___flmul+2
  5409     04A7  01B5               	clrf	??___flmul+3
  5410     04A8  0835               	movf	??___flmul+3,w
  5411     04A9  00C1               	movwf	___flmul@prod+3
  5412     04AA  0834               	movf	??___flmul+2,w
  5413     04AB  00C0               	movwf	___flmul@prod+2
  5414     04AC  0833               	movf	??___flmul+1,w
  5415     04AD  00BF               	movwf	___flmul@prod+1
  5416     04AE  0832               	movf	??___flmul,w
  5417     04AF  00BE               	movwf	___flmul@prod
  5418     04B0  082B               	movf	___flmul@b+1,w
  5419     04B1  00F2               	movwf	__Umul8_16@multiplicand
  5420     04B2  082F               	movf	___flmul@a+1,w
  5421     04B3  120A  158A  2002  120A  118A  	fcall	__Umul8_16
  5422     04B8  0873               	movf	?__Umul8_16+1,w
  5423     04B9  1283               	bcf	3,5	;RP0=0, select bank0
  5424     04BA  1303               	bcf	3,6	;RP1=0, select bank0
  5425     04BB  00C3               	movwf	___flmul@temp+1
  5426     04BC  0872               	movf	?__Umul8_16,w
  5427     04BD  00C2               	movwf	___flmul@temp
  5428     04BE                     l3468:
  5429     04BE  0842               	movf	___flmul@temp,w
  5430     04BF  00B2               	movwf	??___flmul
  5431     04C0  01B3               	clrf	??___flmul+1
  5432     04C1  01B4               	clrf	??___flmul+2
  5433     04C2  01B5               	clrf	??___flmul+3
  5434     04C3  0832               	movf	??___flmul,w
  5435     04C4  07B9               	addwf	___flmul@grs,f
  5436     04C5  0833               	movf	??___flmul+1,w
  5437     04C6  1103               	clrz
  5438     04C7  1803               	skipnc
  5439     04C8  3E01               	addlw	1
  5440     04C9  1903               	skipnz
  5441     04CA  2CCC               	goto	u4481
  5442     04CB  07BA               	addwf	___flmul@grs+1,f
  5443     04CC                     u4481:
  5444     04CC  0834               	movf	??___flmul+2,w
  5445     04CD  1103               	clrz
  5446     04CE  1803               	skipnc
  5447     04CF  3E01               	addlw	1
  5448     04D0  1903               	skipnz
  5449     04D1  2CD3               	goto	u4482
  5450     04D2  07BB               	addwf	___flmul@grs+2,f
  5451     04D3                     u4482:
  5452     04D3  0835               	movf	??___flmul+3,w
  5453     04D4  1103               	clrz
  5454     04D5  1803               	skipnc
  5455     04D6  3E01               	addlw	1
  5456     04D7  1903               	skipnz
  5457     04D8  2CDA               	goto	u4483
  5458     04D9  07BC               	addwf	___flmul@grs+3,f
  5459     04DA                     u4483:
  5460     04DA                     l3470:
  5461     04DA  0843               	movf	___flmul@temp+1,w
  5462     04DB  00B2               	movwf	??___flmul
  5463     04DC  01B3               	clrf	??___flmul+1
  5464     04DD  01B4               	clrf	??___flmul+2
  5465     04DE  01B5               	clrf	??___flmul+3
  5466     04DF  0832               	movf	??___flmul,w
  5467     04E0  07BE               	addwf	___flmul@prod,f
  5468     04E1  0833               	movf	??___flmul+1,w
  5469     04E2  1103               	clrz
  5470     04E3  1803               	skipnc
  5471     04E4  3E01               	addlw	1
  5472     04E5  1903               	skipnz
  5473     04E6  2CE8               	goto	u4491
  5474     04E7  07BF               	addwf	___flmul@prod+1,f
  5475     04E8                     u4491:
  5476     04E8  0834               	movf	??___flmul+2,w
  5477     04E9  1103               	clrz
  5478     04EA  1803               	skipnc
  5479     04EB  3E01               	addlw	1
  5480     04EC  1903               	skipnz
  5481     04ED  2CEF               	goto	u4492
  5482     04EE  07C0               	addwf	___flmul@prod+2,f
  5483     04EF                     u4492:
  5484     04EF  0835               	movf	??___flmul+3,w
  5485     04F0  1103               	clrz
  5486     04F1  1803               	skipnc
  5487     04F2  3E01               	addlw	1
  5488     04F3  1903               	skipnz
  5489     04F4  2CF6               	goto	u4493
  5490     04F5  07C1               	addwf	___flmul@prod+3,f
  5491     04F6                     u4493:
  5492     04F6  082C               	movf	___flmul@b+2,w
  5493     04F7  00F2               	movwf	__Umul8_16@multiplicand
  5494     04F8  082E               	movf	___flmul@a,w
  5495     04F9  120A  158A  2002  120A  118A  	fcall	__Umul8_16
  5496     04FE  0873               	movf	?__Umul8_16+1,w
  5497     04FF  1283               	bcf	3,5	;RP0=0, select bank0
  5498     0500  1303               	bcf	3,6	;RP1=0, select bank0
  5499     0501  00C3               	movwf	___flmul@temp+1
  5500     0502  0872               	movf	?__Umul8_16,w
  5501     0503  00C2               	movwf	___flmul@temp
  5502     0504                     l3472:
  5503     0504  0842               	movf	___flmul@temp,w
  5504     0505  00B2               	movwf	??___flmul
  5505     0506  01B3               	clrf	??___flmul+1
  5506     0507  01B4               	clrf	??___flmul+2
  5507     0508  01B5               	clrf	??___flmul+3
  5508     0509  0832               	movf	??___flmul,w
  5509     050A  07B9               	addwf	___flmul@grs,f
  5510     050B  0833               	movf	??___flmul+1,w
  5511     050C  1103               	clrz
  5512     050D  1803               	skipnc
  5513     050E  3E01               	addlw	1
  5514     050F  1903               	skipnz
  5515     0510  2D12               	goto	u4501
  5516     0511  07BA               	addwf	___flmul@grs+1,f
  5517     0512                     u4501:
  5518     0512  0834               	movf	??___flmul+2,w
  5519     0513  1103               	clrz
  5520     0514  1803               	skipnc
  5521     0515  3E01               	addlw	1
  5522     0516  1903               	skipnz
  5523     0517  2D19               	goto	u4502
  5524     0518  07BB               	addwf	___flmul@grs+2,f
  5525     0519                     u4502:
  5526     0519  0835               	movf	??___flmul+3,w
  5527     051A  1103               	clrz
  5528     051B  1803               	skipnc
  5529     051C  3E01               	addlw	1
  5530     051D  1903               	skipnz
  5531     051E  2D20               	goto	u4503
  5532     051F  07BC               	addwf	___flmul@grs+3,f
  5533     0520                     u4503:
  5534     0520                     l3474:
  5535     0520  0843               	movf	___flmul@temp+1,w
  5536     0521  00B2               	movwf	??___flmul
  5537     0522  01B3               	clrf	??___flmul+1
  5538     0523  01B4               	clrf	??___flmul+2
  5539     0524  01B5               	clrf	??___flmul+3
  5540     0525  0832               	movf	??___flmul,w
  5541     0526  07BE               	addwf	___flmul@prod,f
  5542     0527  0833               	movf	??___flmul+1,w
  5543     0528  1103               	clrz
  5544     0529  1803               	skipnc
  5545     052A  3E01               	addlw	1
  5546     052B  1903               	skipnz
  5547     052C  2D2E               	goto	u4511
  5548     052D  07BF               	addwf	___flmul@prod+1,f
  5549     052E                     u4511:
  5550     052E  0834               	movf	??___flmul+2,w
  5551     052F  1103               	clrz
  5552     0530  1803               	skipnc
  5553     0531  3E01               	addlw	1
  5554     0532  1903               	skipnz
  5555     0533  2D35               	goto	u4512
  5556     0534  07C0               	addwf	___flmul@prod+2,f
  5557     0535                     u4512:
  5558     0535  0835               	movf	??___flmul+3,w
  5559     0536  1103               	clrz
  5560     0537  1803               	skipnc
  5561     0538  3E01               	addlw	1
  5562     0539  1903               	skipnz
  5563     053A  2D3C               	goto	u4513
  5564     053B  07C1               	addwf	___flmul@prod+3,f
  5565     053C                     u4513:
  5566     053C                     l3476:
  5567     053C  3008               	movlw	8
  5568     053D  00B2               	movwf	??___flmul
  5569     053E                     u4525:
  5570     053E  1003               	clrc
  5571     053F  0DB9               	rlf	___flmul@grs,f
  5572     0540  0DBA               	rlf	___flmul@grs+1,f
  5573     0541  0DBB               	rlf	___flmul@grs+2,f
  5574     0542  0DBC               	rlf	___flmul@grs+3,f
  5575     0543  0BB2               	decfsz	??___flmul,f
  5576     0544  2D3E               	goto	u4525
  5577     0545                     l3478:
  5578     0545  082B               	movf	___flmul@b+1,w
  5579     0546  00F2               	movwf	__Umul8_16@multiplicand
  5580     0547  082E               	movf	___flmul@a,w
  5581     0548  120A  158A  2002  120A  118A  	fcall	__Umul8_16
  5582     054D  0873               	movf	?__Umul8_16+1,w
  5583     054E  1283               	bcf	3,5	;RP0=0, select bank0
  5584     054F  1303               	bcf	3,6	;RP1=0, select bank0
  5585     0550  00C3               	movwf	___flmul@temp+1
  5586     0551  0872               	movf	?__Umul8_16,w
  5587     0552  00C2               	movwf	___flmul@temp
  5588     0553                     l3480:
  5589     0553  0842               	movf	___flmul@temp,w
  5590     0554  00B2               	movwf	??___flmul
  5591     0555  0843               	movf	___flmul@temp+1,w
  5592     0556  00B3               	movwf	??___flmul+1
  5593     0557  01B4               	clrf	??___flmul+2
  5594     0558  01B5               	clrf	??___flmul+3
  5595     0559  0832               	movf	??___flmul,w
  5596     055A  07B9               	addwf	___flmul@grs,f
  5597     055B  0833               	movf	??___flmul+1,w
  5598     055C  1103               	clrz
  5599     055D  1803               	skipnc
  5600     055E  3E01               	addlw	1
  5601     055F  1903               	skipnz
  5602     0560  2D62               	goto	u4531
  5603     0561  07BA               	addwf	___flmul@grs+1,f
  5604     0562                     u4531:
  5605     0562  0834               	movf	??___flmul+2,w
  5606     0563  1103               	clrz
  5607     0564  1803               	skipnc
  5608     0565  3E01               	addlw	1
  5609     0566  1903               	skipnz
  5610     0567  2D69               	goto	u4532
  5611     0568  07BB               	addwf	___flmul@grs+2,f
  5612     0569                     u4532:
  5613     0569  0835               	movf	??___flmul+3,w
  5614     056A  1103               	clrz
  5615     056B  1803               	skipnc
  5616     056C  3E01               	addlw	1
  5617     056D  1903               	skipnz
  5618     056E  2D70               	goto	u4533
  5619     056F  07BC               	addwf	___flmul@grs+3,f
  5620     0570                     u4533:
  5621     0570                     l3482:
  5622     0570  082A               	movf	___flmul@b,w
  5623     0571  00F2               	movwf	__Umul8_16@multiplicand
  5624     0572  082F               	movf	___flmul@a+1,w
  5625     0573  120A  158A  2002  120A  118A  	fcall	__Umul8_16
  5626     0578  0873               	movf	?__Umul8_16+1,w
  5627     0579  1283               	bcf	3,5	;RP0=0, select bank0
  5628     057A  1303               	bcf	3,6	;RP1=0, select bank0
  5629     057B  00C3               	movwf	___flmul@temp+1
  5630     057C  0872               	movf	?__Umul8_16,w
  5631     057D  00C2               	movwf	___flmul@temp
  5632     057E                     l3484:
  5633     057E  0842               	movf	___flmul@temp,w
  5634     057F  00B2               	movwf	??___flmul
  5635     0580  0843               	movf	___flmul@temp+1,w
  5636     0581  00B3               	movwf	??___flmul+1
  5637     0582  01B4               	clrf	??___flmul+2
  5638     0583  01B5               	clrf	??___flmul+3
  5639     0584  0832               	movf	??___flmul,w
  5640     0585  07B9               	addwf	___flmul@grs,f
  5641     0586  0833               	movf	??___flmul+1,w
  5642     0587  1103               	clrz
  5643     0588  1803               	skipnc
  5644     0589  3E01               	addlw	1
  5645     058A  1903               	skipnz
  5646     058B  2D8D               	goto	u4541
  5647     058C  07BA               	addwf	___flmul@grs+1,f
  5648     058D                     u4541:
  5649     058D  0834               	movf	??___flmul+2,w
  5650     058E  1103               	clrz
  5651     058F  1803               	skipnc
  5652     0590  3E01               	addlw	1
  5653     0591  1903               	skipnz
  5654     0592  2D94               	goto	u4542
  5655     0593  07BB               	addwf	___flmul@grs+2,f
  5656     0594                     u4542:
  5657     0594  0835               	movf	??___flmul+3,w
  5658     0595  1103               	clrz
  5659     0596  1803               	skipnc
  5660     0597  3E01               	addlw	1
  5661     0598  1903               	skipnz
  5662     0599  2D9B               	goto	u4543
  5663     059A  07BC               	addwf	___flmul@grs+3,f
  5664     059B                     u4543:
  5665     059B                     l3486:
  5666     059B  3008               	movlw	8
  5667     059C  00B2               	movwf	??___flmul
  5668     059D                     u4555:
  5669     059D  1003               	clrc
  5670     059E  0DB9               	rlf	___flmul@grs,f
  5671     059F  0DBA               	rlf	___flmul@grs+1,f
  5672     05A0  0DBB               	rlf	___flmul@grs+2,f
  5673     05A1  0DBC               	rlf	___flmul@grs+3,f
  5674     05A2  0BB2               	decfsz	??___flmul,f
  5675     05A3  2D9D               	goto	u4555
  5676     05A4  082A               	movf	___flmul@b,w
  5677     05A5  00F2               	movwf	__Umul8_16@multiplicand
  5678     05A6  082E               	movf	___flmul@a,w
  5679     05A7  120A  158A  2002  120A  118A  	fcall	__Umul8_16
  5680     05AC  0873               	movf	?__Umul8_16+1,w
  5681     05AD  1283               	bcf	3,5	;RP0=0, select bank0
  5682     05AE  1303               	bcf	3,6	;RP1=0, select bank0
  5683     05AF  00C3               	movwf	___flmul@temp+1
  5684     05B0  0872               	movf	?__Umul8_16,w
  5685     05B1  00C2               	movwf	___flmul@temp
  5686     05B2                     l3488:
  5687     05B2  0842               	movf	___flmul@temp,w
  5688     05B3  00B2               	movwf	??___flmul
  5689     05B4  0843               	movf	___flmul@temp+1,w
  5690     05B5  00B3               	movwf	??___flmul+1
  5691     05B6  01B4               	clrf	??___flmul+2
  5692     05B7  01B5               	clrf	??___flmul+3
  5693     05B8  0832               	movf	??___flmul,w
  5694     05B9  07B9               	addwf	___flmul@grs,f
  5695     05BA  0833               	movf	??___flmul+1,w
  5696     05BB  1103               	clrz
  5697     05BC  1803               	skipnc
  5698     05BD  3E01               	addlw	1
  5699     05BE  1903               	skipnz
  5700     05BF  2DC1               	goto	u4561
  5701     05C0  07BA               	addwf	___flmul@grs+1,f
  5702     05C1                     u4561:
  5703     05C1  0834               	movf	??___flmul+2,w
  5704     05C2  1103               	clrz
  5705     05C3  1803               	skipnc
  5706     05C4  3E01               	addlw	1
  5707     05C5  1903               	skipnz
  5708     05C6  2DC8               	goto	u4562
  5709     05C7  07BB               	addwf	___flmul@grs+2,f
  5710     05C8                     u4562:
  5711     05C8  0835               	movf	??___flmul+3,w
  5712     05C9  1103               	clrz
  5713     05CA  1803               	skipnc
  5714     05CB  3E01               	addlw	1
  5715     05CC  1903               	skipnz
  5716     05CD  2DCF               	goto	u4563
  5717     05CE  07BC               	addwf	___flmul@grs+3,f
  5718     05CF                     u4563:
  5719     05CF                     l3490:
  5720     05CF  082B               	movf	___flmul@b+1,w
  5721     05D0  00F2               	movwf	__Umul8_16@multiplicand
  5722     05D1  0830               	movf	___flmul@a+2,w
  5723     05D2  120A  158A  2002  120A  118A  	fcall	__Umul8_16
  5724     05D7  0873               	movf	?__Umul8_16+1,w
  5725     05D8  1283               	bcf	3,5	;RP0=0, select bank0
  5726     05D9  1303               	bcf	3,6	;RP1=0, select bank0
  5727     05DA  00C3               	movwf	___flmul@temp+1
  5728     05DB  0872               	movf	?__Umul8_16,w
  5729     05DC  00C2               	movwf	___flmul@temp
  5730     05DD  0842               	movf	___flmul@temp,w
  5731     05DE  00B2               	movwf	??___flmul
  5732     05DF  0843               	movf	___flmul@temp+1,w
  5733     05E0  00B3               	movwf	??___flmul+1
  5734     05E1  01B4               	clrf	??___flmul+2
  5735     05E2  01B5               	clrf	??___flmul+3
  5736     05E3  0832               	movf	??___flmul,w
  5737     05E4  07BE               	addwf	___flmul@prod,f
  5738     05E5  0833               	movf	??___flmul+1,w
  5739     05E6  1103               	clrz
  5740     05E7  1803               	skipnc
  5741     05E8  3E01               	addlw	1
  5742     05E9  1903               	skipnz
  5743     05EA  2DEC               	goto	u4571
  5744     05EB  07BF               	addwf	___flmul@prod+1,f
  5745     05EC                     u4571:
  5746     05EC  0834               	movf	??___flmul+2,w
  5747     05ED  1103               	clrz
  5748     05EE  1803               	skipnc
  5749     05EF  3E01               	addlw	1
  5750     05F0  1903               	skipnz
  5751     05F1  2DF3               	goto	u4572
  5752     05F2  07C0               	addwf	___flmul@prod+2,f
  5753     05F3                     u4572:
  5754     05F3  0835               	movf	??___flmul+3,w
  5755     05F4  1103               	clrz
  5756     05F5  1803               	skipnc
  5757     05F6  3E01               	addlw	1
  5758     05F7  1903               	skipnz
  5759     05F8  2DFA               	goto	u4573
  5760     05F9  07C1               	addwf	___flmul@prod+3,f
  5761     05FA                     u4573:
  5762     05FA                     l3492:
  5763     05FA  082C               	movf	___flmul@b+2,w
  5764     05FB  00F2               	movwf	__Umul8_16@multiplicand
  5765     05FC  082F               	movf	___flmul@a+1,w
  5766     05FD  120A  158A  2002  120A  118A  	fcall	__Umul8_16
  5767     0602  0873               	movf	?__Umul8_16+1,w
  5768     0603  1283               	bcf	3,5	;RP0=0, select bank0
  5769     0604  1303               	bcf	3,6	;RP1=0, select bank0
  5770     0605  00C3               	movwf	___flmul@temp+1
  5771     0606  0872               	movf	?__Umul8_16,w
  5772     0607  00C2               	movwf	___flmul@temp
  5773     0608                     l3494:
  5774     0608  0842               	movf	___flmul@temp,w
  5775     0609  00B2               	movwf	??___flmul
  5776     060A  0843               	movf	___flmul@temp+1,w
  5777     060B  00B3               	movwf	??___flmul+1
  5778     060C  01B4               	clrf	??___flmul+2
  5779     060D  01B5               	clrf	??___flmul+3
  5780     060E  0832               	movf	??___flmul,w
  5781     060F  07BE               	addwf	___flmul@prod,f
  5782     0610  0833               	movf	??___flmul+1,w
  5783     0611  1103               	clrz
  5784     0612  1803               	skipnc
  5785     0613  3E01               	addlw	1
  5786     0614  1903               	skipnz
  5787     0615  2E17               	goto	u4581
  5788     0616  07BF               	addwf	___flmul@prod+1,f
  5789     0617                     u4581:
  5790     0617  0834               	movf	??___flmul+2,w
  5791     0618  1103               	clrz
  5792     0619  1803               	skipnc
  5793     061A  3E01               	addlw	1
  5794     061B  1903               	skipnz
  5795     061C  2E1E               	goto	u4582
  5796     061D  07C0               	addwf	___flmul@prod+2,f
  5797     061E                     u4582:
  5798     061E  0835               	movf	??___flmul+3,w
  5799     061F  1103               	clrz
  5800     0620  1803               	skipnc
  5801     0621  3E01               	addlw	1
  5802     0622  1903               	skipnz
  5803     0623  2E25               	goto	u4583
  5804     0624  07C1               	addwf	___flmul@prod+3,f
  5805     0625                     u4583:
  5806     0625  082C               	movf	___flmul@b+2,w
  5807     0626  00F2               	movwf	__Umul8_16@multiplicand
  5808     0627  0830               	movf	___flmul@a+2,w
  5809     0628  120A  158A  2002  120A  118A  	fcall	__Umul8_16
  5810     062D  0873               	movf	?__Umul8_16+1,w
  5811     062E  1283               	bcf	3,5	;RP0=0, select bank0
  5812     062F  1303               	bcf	3,6	;RP1=0, select bank0
  5813     0630  00C3               	movwf	___flmul@temp+1
  5814     0631  0872               	movf	?__Umul8_16,w
  5815     0632  00C2               	movwf	___flmul@temp
  5816     0633                     l3496:
  5817     0633  0842               	movf	___flmul@temp,w
  5818     0634  00B2               	movwf	??___flmul
  5819     0635  0843               	movf	___flmul@temp+1,w
  5820     0636  00B3               	movwf	??___flmul+1
  5821     0637  01B4               	clrf	??___flmul+2
  5822     0638  01B5               	clrf	??___flmul+3
  5823     0639  3008               	movlw	8
  5824     063A                     u4595:
  5825     063A  1003               	clrc
  5826     063B  0DB2               	rlf	??___flmul,f
  5827     063C  0DB3               	rlf	??___flmul+1,f
  5828     063D  0DB4               	rlf	??___flmul+2,f
  5829     063E  0DB5               	rlf	??___flmul+3,f
  5830     063F                     u4590:
  5831     063F  3EFF               	addlw	-1
  5832     0640  1D03               	skipz
  5833     0641  2E3A               	goto	u4595
  5834     0642  0832               	movf	??___flmul,w
  5835     0643  07BE               	addwf	___flmul@prod,f
  5836     0644  0833               	movf	??___flmul+1,w
  5837     0645  1103               	clrz
  5838     0646  1803               	skipnc
  5839     0647  3E01               	addlw	1
  5840     0648  1903               	skipnz
  5841     0649  2E4B               	goto	u4601
  5842     064A  07BF               	addwf	___flmul@prod+1,f
  5843     064B                     u4601:
  5844     064B  0834               	movf	??___flmul+2,w
  5845     064C  1103               	clrz
  5846     064D  1803               	skipnc
  5847     064E  3E01               	addlw	1
  5848     064F  1903               	skipnz
  5849     0650  2E52               	goto	u4602
  5850     0651  07C0               	addwf	___flmul@prod+2,f
  5851     0652                     u4602:
  5852     0652  0835               	movf	??___flmul+3,w
  5853     0653  1103               	clrz
  5854     0654  1803               	skipnc
  5855     0655  3E01               	addlw	1
  5856     0656  1903               	skipnz
  5857     0657  2E59               	goto	u4603
  5858     0658  07C1               	addwf	___flmul@prod+3,f
  5859     0659                     u4603:
  5860     0659                     l3498:
  5861     0659  0839               	movf	___flmul@grs,w
  5862     065A  00B2               	movwf	??___flmul
  5863     065B  083A               	movf	___flmul@grs+1,w
  5864     065C  00B3               	movwf	??___flmul+1
  5865     065D  083B               	movf	___flmul@grs+2,w
  5866     065E  00B4               	movwf	??___flmul+2
  5867     065F  083C               	movf	___flmul@grs+3,w
  5868     0660  00B5               	movwf	??___flmul+3
  5869     0661  3018               	movlw	24
  5870     0662                     u4615:
  5871     0662  1003               	clrc
  5872     0663  0CB5               	rrf	??___flmul+3,f
  5873     0664  0CB4               	rrf	??___flmul+2,f
  5874     0665  0CB3               	rrf	??___flmul+1,f
  5875     0666  0CB2               	rrf	??___flmul,f
  5876     0667                     u4610:
  5877     0667  3EFF               	addlw	-1
  5878     0668  1D03               	skipz
  5879     0669  2E62               	goto	u4615
  5880     066A  0832               	movf	??___flmul,w
  5881     066B  07BE               	addwf	___flmul@prod,f
  5882     066C  0833               	movf	??___flmul+1,w
  5883     066D  1103               	clrz
  5884     066E  1803               	skipnc
  5885     066F  3E01               	addlw	1
  5886     0670  1903               	skipnz
  5887     0671  2E73               	goto	u4621
  5888     0672  07BF               	addwf	___flmul@prod+1,f
  5889     0673                     u4621:
  5890     0673  0834               	movf	??___flmul+2,w
  5891     0674  1103               	clrz
  5892     0675  1803               	skipnc
  5893     0676  3E01               	addlw	1
  5894     0677  1903               	skipnz
  5895     0678  2E7A               	goto	u4622
  5896     0679  07C0               	addwf	___flmul@prod+2,f
  5897     067A                     u4622:
  5898     067A  0835               	movf	??___flmul+3,w
  5899     067B  1103               	clrz
  5900     067C  1803               	skipnc
  5901     067D  3E01               	addlw	1
  5902     067E  1903               	skipnz
  5903     067F  2E81               	goto	u4623
  5904     0680  07C1               	addwf	___flmul@prod+3,f
  5905     0681                     u4623:
  5906     0681                     l3500:
  5907     0681  3008               	movlw	8
  5908     0682  00B2               	movwf	??___flmul
  5909     0683                     u4635:
  5910     0683  1003               	clrc
  5911     0684  0DB9               	rlf	___flmul@grs,f
  5912     0685  0DBA               	rlf	___flmul@grs+1,f
  5913     0686  0DBB               	rlf	___flmul@grs+2,f
  5914     0687  0DBC               	rlf	___flmul@grs+3,f
  5915     0688  0BB2               	decfsz	??___flmul,f
  5916     0689  2E83               	goto	u4635
  5917     068A                     l3502:
  5918     068A  083D               	movf	___flmul@bexp,w
  5919     068B  0738               	addwf	___flmul@aexp,w
  5920     068C  00B2               	movwf	??___flmul
  5921     068D  01B3               	clrf	??___flmul+1
  5922     068E  0DB3               	rlf	??___flmul+1,f
  5923     068F  0832               	movf	??___flmul,w
  5924     0690  3E82               	addlw	130
  5925     0691  00C2               	movwf	___flmul@temp
  5926     0692  0833               	movf	??___flmul+1,w
  5927     0693  1803               	skipnc
  5928     0694  3E01               	addlw	1
  5929     0695  3EFF               	addlw	255
  5930     0696  00C3               	movwf	___flmul@temp+1
  5931     0697  2EB5               	goto	l3514
  5932     0698                     l3504:
  5933     0698  3001               	movlw	1
  5934     0699  00B2               	movwf	??___flmul
  5935     069A                     u4645:
  5936     069A  1003               	clrc
  5937     069B  0DBE               	rlf	___flmul@prod,f
  5938     069C  0DBF               	rlf	___flmul@prod+1,f
  5939     069D  0DC0               	rlf	___flmul@prod+2,f
  5940     069E  0DC1               	rlf	___flmul@prod+3,f
  5941     069F  0BB2               	decfsz	??___flmul,f
  5942     06A0  2E9A               	goto	u4645
  5943     06A1                     l3506:
  5944     06A1  1FBC               	btfss	___flmul@grs+3,7
  5945     06A2  2EA4               	goto	u4651
  5946     06A3  2EA5               	goto	u4650
  5947     06A4                     u4651:
  5948     06A4  2EA6               	goto	l3510
  5949     06A5                     u4650:
  5950     06A5                     l3508:
  5951     06A5  143E               	bsf	___flmul@prod,0
  5952     06A6                     l3510:
  5953     06A6  3001               	movlw	1
  5954     06A7  00B2               	movwf	??___flmul
  5955     06A8                     u4665:
  5956     06A8  1003               	clrc
  5957     06A9  0DB9               	rlf	___flmul@grs,f
  5958     06AA  0DBA               	rlf	___flmul@grs+1,f
  5959     06AB  0DBB               	rlf	___flmul@grs+2,f
  5960     06AC  0DBC               	rlf	___flmul@grs+3,f
  5961     06AD  0BB2               	decfsz	??___flmul,f
  5962     06AE  2EA8               	goto	u4665
  5963     06AF                     l3512:
  5964     06AF  30FF               	movlw	255
  5965     06B0  07C2               	addwf	___flmul@temp,f
  5966     06B1  1803               	skipnc
  5967     06B2  0AC3               	incf	___flmul@temp+1,f
  5968     06B3  30FF               	movlw	255
  5969     06B4  07C3               	addwf	___flmul@temp+1,f
  5970     06B5                     l3514:
  5971     06B5  1FC0               	btfss	___flmul@prod+2,7
  5972     06B6  2EB8               	goto	u4671
  5973     06B7  2EB9               	goto	u4670
  5974     06B8                     u4671:
  5975     06B8  2E98               	goto	l3504
  5976     06B9                     u4670:
  5977     06B9                     l3516:
  5978     06B9  01B8               	clrf	___flmul@aexp
  5979     06BA                     l3518:
  5980     06BA  1FBC               	btfss	___flmul@grs+3,7
  5981     06BB  2EBD               	goto	u4681
  5982     06BC  2EBE               	goto	u4680
  5983     06BD                     u4681:
  5984     06BD  2EDA               	goto	l3526
  5985     06BE                     u4680:
  5986     06BE                     l3520:
  5987     06BE  30FF               	movlw	255
  5988     06BF  0539               	andwf	___flmul@grs,w
  5989     06C0  00B2               	movwf	??___flmul
  5990     06C1  30FF               	movlw	255
  5991     06C2  053A               	andwf	___flmul@grs+1,w
  5992     06C3  00B3               	movwf	??___flmul+1
  5993     06C4  30FF               	movlw	255
  5994     06C5  053B               	andwf	___flmul@grs+2,w
  5995     06C6  00B4               	movwf	??___flmul+2
  5996     06C7  307F               	movlw	127
  5997     06C8  053C               	andwf	___flmul@grs+3,w
  5998     06C9  00B5               	movwf	??___flmul+3
  5999     06CA  0835               	movf	??___flmul+3,w
  6000     06CB  0434               	iorwf	??___flmul+2,w
  6001     06CC  0433               	iorwf	??___flmul+1,w
  6002     06CD  0432               	iorwf	??___flmul,w
  6003     06CE  1903               	skipnz
  6004     06CF  2ED1               	goto	u4691
  6005     06D0  2ED2               	goto	u4690
  6006     06D1                     u4691:
  6007     06D1  2ED5               	goto	l843
  6008     06D2                     u4690:
  6009     06D2                     l3522:
  6010     06D2  3001               	movlw	1
  6011     06D3  00B8               	movwf	___flmul@aexp
  6012     06D4  2EDA               	goto	l3526
  6013     06D5                     l843:
  6014     06D5  1C3E               	btfss	___flmul@prod,0
  6015     06D6  2ED8               	goto	u4701
  6016     06D7  2ED9               	goto	u4700
  6017     06D8                     u4701:
  6018     06D8  2EDA               	goto	l3526
  6019     06D9                     u4700:
  6020     06D9  2ED2               	goto	l3522
  6021     06DA                     l3526:
  6022     06DA  0838               	movf	___flmul@aexp,w
  6023     06DB  1903               	btfsc	3,2
  6024     06DC  2EDE               	goto	u4711
  6025     06DD  2EDF               	goto	u4710
  6026     06DE                     u4711:
  6027     06DE  2F10               	goto	l3536
  6028     06DF                     u4710:
  6029     06DF                     l3528:
  6030     06DF  3001               	movlw	1
  6031     06E0  07BE               	addwf	___flmul@prod,f
  6032     06E1  3000               	movlw	0
  6033     06E2  1803               	skipnc
  6034     06E3  3001               	movlw	1
  6035     06E4  07BF               	addwf	___flmul@prod+1,f
  6036     06E5  3000               	movlw	0
  6037     06E6  1803               	skipnc
  6038     06E7  3001               	movlw	1
  6039     06E8  07C0               	addwf	___flmul@prod+2,f
  6040     06E9  3000               	movlw	0
  6041     06EA  1803               	skipnc
  6042     06EB  3001               	movlw	1
  6043     06EC  07C1               	addwf	___flmul@prod+3,f
  6044     06ED                     l3530:
  6045     06ED  1C41               	btfss	___flmul@prod+3,0
  6046     06EE  2EF0               	goto	u4721
  6047     06EF  2EF1               	goto	u4720
  6048     06F0                     u4721:
  6049     06F0  2F10               	goto	l3536
  6050     06F1                     u4720:
  6051     06F1                     l3532:
  6052     06F1  083E               	movf	___flmul@prod,w
  6053     06F2  00B2               	movwf	??___flmul
  6054     06F3  083F               	movf	___flmul@prod+1,w
  6055     06F4  00B3               	movwf	??___flmul+1
  6056     06F5  0840               	movf	___flmul@prod+2,w
  6057     06F6  00B4               	movwf	??___flmul+2
  6058     06F7  0841               	movf	___flmul@prod+3,w
  6059     06F8  00B5               	movwf	??___flmul+3
  6060     06F9  3001               	movlw	1
  6061     06FA  00B6               	movwf	??___flmul+4
  6062     06FB                     u4735:
  6063     06FB  0D35               	rlf	??___flmul+3,w
  6064     06FC  0CB5               	rrf	??___flmul+3,f
  6065     06FD  0CB4               	rrf	??___flmul+2,f
  6066     06FE  0CB3               	rrf	??___flmul+1,f
  6067     06FF  0CB2               	rrf	??___flmul,f
  6068     0700                     u4730:
  6069     0700  0BB6               	decfsz	??___flmul+4,f
  6070     0701  2EFB               	goto	u4735
  6071     0702  0835               	movf	??___flmul+3,w
  6072     0703  00C1               	movwf	___flmul@prod+3
  6073     0704  0834               	movf	??___flmul+2,w
  6074     0705  00C0               	movwf	___flmul@prod+2
  6075     0706  0833               	movf	??___flmul+1,w
  6076     0707  00BF               	movwf	___flmul@prod+1
  6077     0708  0832               	movf	??___flmul,w
  6078     0709  00BE               	movwf	___flmul@prod
  6079     070A                     l3534:
  6080     070A  3001               	movlw	1
  6081     070B  07C2               	addwf	___flmul@temp,f
  6082     070C  1803               	skipnc
  6083     070D  0AC3               	incf	___flmul@temp+1,f
  6084     070E  3000               	movlw	0
  6085     070F  07C3               	addwf	___flmul@temp+1,f
  6086     0710                     l3536:
  6087     0710  0843               	movf	___flmul@temp+1,w
  6088     0711  3A80               	xorlw	128
  6089     0712  00FF               	movwf	btemp+1
  6090     0713  3080               	movlw	128
  6091     0714  027F               	subwf	btemp+1,w
  6092     0715  1D03               	skipz
  6093     0716  2F19               	goto	u4745
  6094     0717  30FF               	movlw	255
  6095     0718  0242               	subwf	___flmul@temp,w
  6096     0719                     u4745:
  6097     0719  1C03               	skipc
  6098     071A  2F1C               	goto	u4741
  6099     071B  2F1D               	goto	u4740
  6100     071C                     u4741:
  6101     071C  2F28               	goto	l3540
  6102     071D                     u4740:
  6103     071D                     l3538:
  6104     071D  307F               	movlw	127
  6105     071E  1283               	bcf	3,5	;RP0=0, select bank0
  6106     071F  1303               	bcf	3,6	;RP1=0, select bank0
  6107     0720  00C1               	movwf	___flmul@prod+3
  6108     0721  3080               	movlw	128
  6109     0722  00C0               	movwf	___flmul@prod+2
  6110     0723  3000               	movlw	0
  6111     0724  00BF               	movwf	___flmul@prod+1
  6112     0725  3000               	movlw	0
  6113     0726  00BE               	movwf	___flmul@prod
  6114     0727  2F59               	goto	l849
  6115     0728                     l3540:
  6116     0728  1283               	bcf	3,5	;RP0=0, select bank0
  6117     0729  1303               	bcf	3,6	;RP1=0, select bank0
  6118     072A  0843               	movf	___flmul@temp+1,w
  6119     072B  3A80               	xorlw	128
  6120     072C  00FF               	movwf	btemp+1
  6121     072D  3080               	movlw	128
  6122     072E  027F               	subwf	btemp+1,w
  6123     072F  1D03               	skipz
  6124     0730  2F33               	goto	u4755
  6125     0731  3001               	movlw	1
  6126     0732  0242               	subwf	___flmul@temp,w
  6127     0733                     u4755:
  6128     0733  1803               	skipnc
  6129     0734  2F36               	goto	u4751
  6130     0735  2F37               	goto	u4750
  6131     0736                     u4751:
  6132     0736  2F43               	goto	l3546
  6133     0737                     u4750:
  6134     0737                     l3542:
  6135     0737  3000               	movlw	0
  6136     0738  1283               	bcf	3,5	;RP0=0, select bank0
  6137     0739  1303               	bcf	3,6	;RP1=0, select bank0
  6138     073A  00C1               	movwf	___flmul@prod+3
  6139     073B  3000               	movlw	0
  6140     073C  00C0               	movwf	___flmul@prod+2
  6141     073D  3000               	movlw	0
  6142     073E  00BF               	movwf	___flmul@prod+1
  6143     073F  3000               	movlw	0
  6144     0740  00BE               	movwf	___flmul@prod
  6145     0741                     l3544:
  6146     0741  01B7               	clrf	___flmul@sign
  6147     0742  2F59               	goto	l849
  6148     0743                     l3546:
  6149     0743  1283               	bcf	3,5	;RP0=0, select bank0
  6150     0744  1303               	bcf	3,6	;RP1=0, select bank0
  6151     0745  0842               	movf	___flmul@temp,w
  6152     0746  00BD               	movwf	___flmul@bexp
  6153     0747  30FF               	movlw	255
  6154     0748  05BE               	andwf	___flmul@prod,f
  6155     0749  30FF               	movlw	255
  6156     074A  05BF               	andwf	___flmul@prod+1,f
  6157     074B  307F               	movlw	127
  6158     074C  05C0               	andwf	___flmul@prod+2,f
  6159     074D  3000               	movlw	0
  6160     074E  05C1               	andwf	___flmul@prod+3,f
  6161     074F                     l3548:
  6162     074F  1C3D               	btfss	___flmul@bexp,0
  6163     0750  2F52               	goto	u4761
  6164     0751  2F53               	goto	u4760
  6165     0752                     u4761:
  6166     0752  2F54               	goto	l3552
  6167     0753                     u4760:
  6168     0753                     l3550:
  6169     0753  17C0               	bsf	___flmul@prod+2,7
  6170     0754                     l3552:
  6171     0754  083D               	movf	___flmul@bexp,w
  6172     0755  00B2               	movwf	??___flmul
  6173     0756  1003               	clrc
  6174     0757  0C32               	rrf	??___flmul,w
  6175     0758  00C1               	movwf	___flmul@prod+3
  6176     0759                     l849:
  6177     0759  0837               	movf	___flmul@sign,w
  6178     075A  04C1               	iorwf	___flmul@prod+3,f
  6179     075B                     l3554:
  6180     075B  0841               	movf	___flmul@prod+3,w
  6181     075C  00AD               	movwf	?___flmul+3
  6182     075D  0840               	movf	___flmul@prod+2,w
  6183     075E  00AC               	movwf	?___flmul+2
  6184     075F  083F               	movf	___flmul@prod+1,w
  6185     0760  00AB               	movwf	?___flmul+1
  6186     0761  083E               	movf	___flmul@prod,w
  6187     0762  00AA               	movwf	?___flmul
  6188     0763                     l837:
  6189     0763  0008               	return
  6190     0764                     __end_of___flmul:
  6191                           
  6192                           	psect	text11
  6193     0802                     __ptext11:	
  6194 ;; *************** function __Umul8_16 *****************
  6195 ;; Defined at:
  6196 ;;		line 4 in file "C:\Program Files\Microchip\xc8\v3.00\pic\sources\c99\common\Umul8_16.c"
  6197 ;; Parameters:    Size  Location     Type
  6198 ;;  multiplier      1    wreg     unsigned char 
  6199 ;;  multiplicand    1    2[COMMON] unsigned char 
  6200 ;; Auto vars:     Size  Location     Type
  6201 ;;  multiplier      1    4[BANK0 ] unsigned char 
  6202 ;;  word_mpld       2    2[BANK0 ] unsigned short 
  6203 ;;  product         2    0[BANK0 ] unsigned short 
  6204 ;; Return value:  Size  Location     Type
  6205 ;;                  2    2[COMMON] unsigned int 
  6206 ;; Registers used:
  6207 ;;		wreg, status,2, status,0
  6208 ;; Tracked objects:
  6209 ;;		On entry : 0/0
  6210 ;;		On exit  : 0/0
  6211 ;;		Unchanged: 0/0
  6212 ;; Data sizes:     COMMON   BANK0   BANK1   BANK3   BANK2
  6213 ;;      Params:         2       0       0       0       0
  6214 ;;      Locals:         0       5       0       0       0
  6215 ;;      Temps:          2       0       0       0       0
  6216 ;;      Totals:         4       5       0       0       0
  6217 ;;Total ram usage:        9 bytes
  6218 ;; Hardware stack levels used: 1
  6219 ;; Hardware stack levels required when called: 1
  6220 ;; This function calls:
  6221 ;;		Nothing
  6222 ;; This function is called by:
  6223 ;;		___flmul
  6224 ;; This function uses a non-reentrant model
  6225 ;;
  6226                           
  6227     0802                     __Umul8_16:	
  6228                           ;psect for function __Umul8_16
  6229                           
  6230                           
  6231                           ;incstack = 0
  6232                           ; Regs used in __Umul8_16: [wreg+status,2+status,0]
  6233                           ;__Umul8_16@multiplier stored from wreg
  6234     0802  1283               	bcf	3,5	;RP0=0, select bank0
  6235     0803  1303               	bcf	3,6	;RP1=0, select bank0
  6236     0804  00A4               	movwf	__Umul8_16@multiplier
  6237     0805                     l3210:
  6238     0805  01A0               	clrf	__Umul8_16@product
  6239     0806  01A1               	clrf	__Umul8_16@product+1
  6240     0807                     l3212:
  6241     0807  0872               	movf	__Umul8_16@multiplicand,w
  6242     0808  00F4               	movwf	??__Umul8_16
  6243     0809  01F5               	clrf	??__Umul8_16+1
  6244     080A  0874               	movf	??__Umul8_16,w
  6245     080B  00A2               	movwf	__Umul8_16@word_mpld
  6246     080C  0875               	movf	??__Umul8_16+1,w
  6247     080D  00A3               	movwf	__Umul8_16@word_mpld+1
  6248     080E                     l3214:
  6249     080E  1C24               	btfss	__Umul8_16@multiplier,0
  6250     080F  2811               	goto	u3971
  6251     0810  2812               	goto	u3970
  6252     0811                     u3971:
  6253     0811  2818               	goto	l856
  6254     0812                     u3970:
  6255     0812                     l3216:
  6256     0812  0822               	movf	__Umul8_16@word_mpld,w
  6257     0813  07A0               	addwf	__Umul8_16@product,f
  6258     0814  1803               	skipnc
  6259     0815  0AA1               	incf	__Umul8_16@product+1,f
  6260     0816  0823               	movf	__Umul8_16@word_mpld+1,w
  6261     0817  07A1               	addwf	__Umul8_16@product+1,f
  6262     0818                     l856:
  6263     0818  3001               	movlw	1
  6264     0819                     u3985:
  6265     0819  1003               	clrc
  6266     081A  0DA2               	rlf	__Umul8_16@word_mpld,f
  6267     081B  0DA3               	rlf	__Umul8_16@word_mpld+1,f
  6268     081C  3EFF               	addlw	-1
  6269     081D  1D03               	skipz
  6270     081E  2819               	goto	u3985
  6271     081F  1003               	clrc
  6272     0820  0CA4               	rrf	__Umul8_16@multiplier,f
  6273     0821                     l3218:
  6274     0821  0824               	movf	__Umul8_16@multiplier,w
  6275     0822  1D03               	btfss	3,2
  6276     0823  2825               	goto	u3991
  6277     0824  2826               	goto	u3990
  6278     0825                     u3991:
  6279     0825  280E               	goto	l3214
  6280     0826                     u3990:
  6281     0826                     l3220:
  6282     0826  0821               	movf	__Umul8_16@product+1,w
  6283     0827  00F3               	movwf	?__Umul8_16+1
  6284     0828  0820               	movf	__Umul8_16@product,w
  6285     0829  00F2               	movwf	?__Umul8_16
  6286     082A                     l858:
  6287     082A  0008               	return
  6288     082B                     __end_of__Umul8_16:
  6289                           
  6290                           	psect	text12
  6291     175C                     __ptext12:	
  6292 ;; *************** function ___flge *****************
  6293 ;; Defined at:
  6294 ;;		line 4 in file "C:\Program Files\Microchip\xc8\v3.00\pic\sources\c99\common\flge.c"
  6295 ;; Parameters:    Size  Location     Type
  6296 ;;  ff1             4   44[BANK0 ] unsigned int 
  6297 ;;  ff2             4   48[BANK0 ] unsigned int 
  6298 ;; Auto vars:     Size  Location     Type
  6299 ;;		None
  6300 ;; Return value:  Size  Location     Type
  6301 ;;		None               void
  6302 ;; Registers used:
  6303 ;;		wreg, status,2, status,0
  6304 ;; Tracked objects:
  6305 ;;		On entry : 0/0
  6306 ;;		On exit  : 0/0
  6307 ;;		Unchanged: 0/0
  6308 ;; Data sizes:     COMMON   BANK0   BANK1   BANK3   BANK2
  6309 ;;      Params:         0       8       0       0       0
  6310 ;;      Locals:         0       0       0       0       0
  6311 ;;      Temps:          0       4       0       0       0
  6312 ;;      Totals:         0      12       0       0       0
  6313 ;;Total ram usage:       12 bytes
  6314 ;; Hardware stack levels used: 1
  6315 ;; Hardware stack levels required when called: 1
  6316 ;; This function calls:
  6317 ;;		Nothing
  6318 ;; This function is called by:
  6319 ;;		_start
  6320 ;; This function uses a non-reentrant model
  6321 ;;
  6322                           
  6323     175C                     ___flge:	
  6324                           ;psect for function ___flge
  6325                           
  6326     175C                     l3354:	
  6327                           ;incstack = 0
  6328                           ; Regs used in ___flge: [wreg+status,2+status,0]
  6329                           
  6330     175C  3000               	movlw	0
  6331     175D  1283               	bcf	3,5	;RP0=0, select bank0
  6332     175E  1303               	bcf	3,6	;RP1=0, select bank0
  6333     175F  054C               	andwf	___flge@ff1,w
  6334     1760  00D4               	movwf	??___flge
  6335     1761  3000               	movlw	0
  6336     1762  054D               	andwf	___flge@ff1+1,w
  6337     1763  00D5               	movwf	??___flge+1
  6338     1764  3080               	movlw	128
  6339     1765  054E               	andwf	___flge@ff1+2,w
  6340     1766  00D6               	movwf	??___flge+2
  6341     1767  307F               	movlw	127
  6342     1768  054F               	andwf	___flge@ff1+3,w
  6343     1769  00D7               	movwf	??___flge+3
  6344     176A  0857               	movf	??___flge+3,w
  6345     176B  0456               	iorwf	??___flge+2,w
  6346     176C  0455               	iorwf	??___flge+1,w
  6347     176D  0454               	iorwf	??___flge,w
  6348     176E  1D03               	skipz
  6349     176F  2F71               	goto	u4231
  6350     1770  2F72               	goto	u4230
  6351     1771                     u4231:
  6352     1771  2F7A               	goto	l618
  6353     1772                     u4230:
  6354     1772                     l3356:
  6355     1772  3000               	movlw	0
  6356     1773  00CF               	movwf	___flge@ff1+3
  6357     1774  3000               	movlw	0
  6358     1775  00CE               	movwf	___flge@ff1+2
  6359     1776  3000               	movlw	0
  6360     1777  00CD               	movwf	___flge@ff1+1
  6361     1778  3000               	movlw	0
  6362     1779  00CC               	movwf	___flge@ff1
  6363     177A                     l618:
  6364     177A  3000               	movlw	0
  6365     177B  0550               	andwf	___flge@ff2,w
  6366     177C  00D4               	movwf	??___flge
  6367     177D  3000               	movlw	0
  6368     177E  0551               	andwf	___flge@ff2+1,w
  6369     177F  00D5               	movwf	??___flge+1
  6370     1780  3080               	movlw	128
  6371     1781  0552               	andwf	___flge@ff2+2,w
  6372     1782  00D6               	movwf	??___flge+2
  6373     1783  307F               	movlw	127
  6374     1784  0553               	andwf	___flge@ff2+3,w
  6375     1785  00D7               	movwf	??___flge+3
  6376     1786  0857               	movf	??___flge+3,w
  6377     1787  0456               	iorwf	??___flge+2,w
  6378     1788  0455               	iorwf	??___flge+1,w
  6379     1789  0454               	iorwf	??___flge,w
  6380     178A  1D03               	skipz
  6381     178B  2F8D               	goto	u4241
  6382     178C  2F8E               	goto	u4240
  6383     178D                     u4241:
  6384     178D  2F96               	goto	l3360
  6385     178E                     u4240:
  6386     178E                     l3358:
  6387     178E  3000               	movlw	0
  6388     178F  00D3               	movwf	___flge@ff2+3
  6389     1790  3000               	movlw	0
  6390     1791  00D2               	movwf	___flge@ff2+2
  6391     1792  3000               	movlw	0
  6392     1793  00D1               	movwf	___flge@ff2+1
  6393     1794  3000               	movlw	0
  6394     1795  00D0               	movwf	___flge@ff2
  6395     1796                     l3360:
  6396     1796  1FCF               	btfss	___flge@ff1+3,7
  6397     1797  2F99               	goto	u4251
  6398     1798  2F9A               	goto	u4250
  6399     1799                     u4251:
  6400     1799  2FBE               	goto	l3364
  6401     179A                     u4250:
  6402     179A                     l3362:
  6403     179A  3000               	movlw	0
  6404     179B  00D4               	movwf	??___flge
  6405     179C  3000               	movlw	0
  6406     179D  00D5               	movwf	??___flge+1
  6407     179E  3000               	movlw	0
  6408     179F  00D6               	movwf	??___flge+2
  6409     17A0  3080               	movlw	128
  6410     17A1  00D7               	movwf	??___flge+3
  6411     17A2  084C               	movf	___flge@ff1,w
  6412     17A3  02D4               	subwf	??___flge,f
  6413     17A4  084D               	movf	___flge@ff1+1,w
  6414     17A5  1C03               	skipc
  6415     17A6  0F4D               	incfsz	___flge@ff1+1,w
  6416     17A7  2FA9               	goto	u4261
  6417     17A8  2FAA               	goto	u4262
  6418     17A9                     u4261:
  6419     17A9  02D5               	subwf	??___flge+1,f
  6420     17AA                     u4262:
  6421     17AA  084E               	movf	___flge@ff1+2,w
  6422     17AB  1C03               	skipc
  6423     17AC  0F4E               	incfsz	___flge@ff1+2,w
  6424     17AD  2FAF               	goto	u4263
  6425     17AE  2FB0               	goto	u4264
  6426     17AF                     u4263:
  6427     17AF  02D6               	subwf	??___flge+2,f
  6428     17B0                     u4264:
  6429     17B0  084F               	movf	___flge@ff1+3,w
  6430     17B1  1C03               	skipc
  6431     17B2  0F4F               	incfsz	___flge@ff1+3,w
  6432     17B3  2FB5               	goto	u4265
  6433     17B4  2FB6               	goto	u4266
  6434     17B5                     u4265:
  6435     17B5  02D7               	subwf	??___flge+3,f
  6436     17B6                     u4266:
  6437     17B6  0857               	movf	??___flge+3,w
  6438     17B7  00CF               	movwf	___flge@ff1+3
  6439     17B8  0856               	movf	??___flge+2,w
  6440     17B9  00CE               	movwf	___flge@ff1+2
  6441     17BA  0855               	movf	??___flge+1,w
  6442     17BB  00CD               	movwf	___flge@ff1+1
  6443     17BC  0854               	movf	??___flge,w
  6444     17BD  00CC               	movwf	___flge@ff1
  6445     17BE                     l3364:
  6446     17BE  1FD3               	btfss	___flge@ff2+3,7
  6447     17BF  2FC1               	goto	u4271
  6448     17C0  2FC2               	goto	u4270
  6449     17C1                     u4271:
  6450     17C1  2FE6               	goto	l621
  6451     17C2                     u4270:
  6452     17C2                     l3366:
  6453     17C2  3000               	movlw	0
  6454     17C3  00D4               	movwf	??___flge
  6455     17C4  3000               	movlw	0
  6456     17C5  00D5               	movwf	??___flge+1
  6457     17C6  3000               	movlw	0
  6458     17C7  00D6               	movwf	??___flge+2
  6459     17C8  3080               	movlw	128
  6460     17C9  00D7               	movwf	??___flge+3
  6461     17CA  0850               	movf	___flge@ff2,w
  6462     17CB  02D4               	subwf	??___flge,f
  6463     17CC  0851               	movf	___flge@ff2+1,w
  6464     17CD  1C03               	skipc
  6465     17CE  0F51               	incfsz	___flge@ff2+1,w
  6466     17CF  2FD1               	goto	u4281
  6467     17D0  2FD2               	goto	u4282
  6468     17D1                     u4281:
  6469     17D1  02D5               	subwf	??___flge+1,f
  6470     17D2                     u4282:
  6471     17D2  0852               	movf	___flge@ff2+2,w
  6472     17D3  1C03               	skipc
  6473     17D4  0F52               	incfsz	___flge@ff2+2,w
  6474     17D5  2FD7               	goto	u4283
  6475     17D6  2FD8               	goto	u4284
  6476     17D7                     u4283:
  6477     17D7  02D6               	subwf	??___flge+2,f
  6478     17D8                     u4284:
  6479     17D8  0853               	movf	___flge@ff2+3,w
  6480     17D9  1C03               	skipc
  6481     17DA  0F53               	incfsz	___flge@ff2+3,w
  6482     17DB  2FDD               	goto	u4285
  6483     17DC  2FDE               	goto	u4286
  6484     17DD                     u4285:
  6485     17DD  02D7               	subwf	??___flge+3,f
  6486     17DE                     u4286:
  6487     17DE  0857               	movf	??___flge+3,w
  6488     17DF  00D3               	movwf	___flge@ff2+3
  6489     17E0  0856               	movf	??___flge+2,w
  6490     17E1  00D2               	movwf	___flge@ff2+2
  6491     17E2  0855               	movf	??___flge+1,w
  6492     17E3  00D1               	movwf	___flge@ff2+1
  6493     17E4  0854               	movf	??___flge,w
  6494     17E5  00D0               	movwf	___flge@ff2
  6495     17E6                     l621:
  6496     17E6  3080               	movlw	128
  6497     17E7  06CF               	xorwf	___flge@ff1+3,f
  6498     17E8  3080               	movlw	128
  6499     17E9  06D3               	xorwf	___flge@ff2+3,f
  6500     17EA  0853               	movf	___flge@ff2+3,w
  6501     17EB  024F               	subwf	___flge@ff1+3,w
  6502     17EC  1D03               	skipz
  6503     17ED  2FF8               	goto	u4295
  6504     17EE  0852               	movf	___flge@ff2+2,w
  6505     17EF  024E               	subwf	___flge@ff1+2,w
  6506     17F0  1D03               	skipz
  6507     17F1  2FF8               	goto	u4295
  6508     17F2  0851               	movf	___flge@ff2+1,w
  6509     17F3  024D               	subwf	___flge@ff1+1,w
  6510     17F4  1D03               	skipz
  6511     17F5  2FF8               	goto	u4295
  6512     17F6  0850               	movf	___flge@ff2,w
  6513     17F7  024C               	subwf	___flge@ff1,w
  6514     17F8                     u4295:
  6515     17F8  1803               	skipnc
  6516     17F9  2FFB               	goto	u4291
  6517     17FA  2FFC               	goto	u4290
  6518     17FB                     u4291:
  6519     17FB  2FFE               	goto	l3370
  6520     17FC                     u4290:
  6521     17FC                     l3368:
  6522     17FC  1003               	clrc
  6523     17FD  2FFF               	goto	l626
  6524     17FE                     l3370:
  6525     17FE  1403               	setc
  6526     17FF                     l626:
  6527     17FF  0008               	return
  6528     1800                     __end_of___flge:
  6529                           
  6530                           	psect	text13
  6531     144A                     __ptext13:	
  6532 ;; *************** function ___bmul *****************
  6533 ;; Defined at:
  6534 ;;		line 4 in file "C:\Program Files\Microchip\xc8\v3.00\pic\sources\c99\common\Umul8.c"
  6535 ;; Parameters:    Size  Location     Type
  6536 ;;  multiplier      1    wreg     unsigned char 
  6537 ;;  multiplicand    1    2[COMMON] unsigned char 
  6538 ;; Auto vars:     Size  Location     Type
  6539 ;;  multiplier      1    4[COMMON] unsigned char 
  6540 ;;  product         1    3[COMMON] unsigned char 
  6541 ;; Return value:  Size  Location     Type
  6542 ;;                  1    wreg      unsigned char 
  6543 ;; Registers used:
  6544 ;;		wreg, status,2, status,0
  6545 ;; Tracked objects:
  6546 ;;		On entry : 0/0
  6547 ;;		On exit  : 0/0
  6548 ;;		Unchanged: 0/0
  6549 ;; Data sizes:     COMMON   BANK0   BANK1   BANK3   BANK2
  6550 ;;      Params:         1       0       0       0       0
  6551 ;;      Locals:         2       0       0       0       0
  6552 ;;      Temps:          0       0       0       0       0
  6553 ;;      Totals:         3       0       0       0       0
  6554 ;;Total ram usage:        3 bytes
  6555 ;; Hardware stack levels used: 1
  6556 ;; Hardware stack levels required when called: 1
  6557 ;; This function calls:
  6558 ;;		Nothing
  6559 ;; This function is called by:
  6560 ;;		_start
  6561 ;; This function uses a non-reentrant model
  6562 ;;
  6563                           
  6564     144A                     ___bmul:	
  6565                           ;psect for function ___bmul
  6566                           
  6567                           
  6568                           ;incstack = 0
  6569                           ; Regs used in ___bmul: [wreg+status,2+status,0]
  6570                           ;___bmul@multiplier stored from wreg
  6571     144A  00F4               	movwf	___bmul@multiplier
  6572     144B                     l3258:
  6573     144B  01F3               	clrf	___bmul@product
  6574     144C                     l3260:
  6575     144C  1C74               	btfss	___bmul@multiplier,0
  6576     144D  2C4F               	goto	u4021
  6577     144E  2C50               	goto	u4020
  6578     144F                     u4021:
  6579     144F  2C52               	goto	l3264
  6580     1450                     u4020:
  6581     1450                     l3262:
  6582     1450  0872               	movf	___bmul@multiplicand,w
  6583     1451  07F3               	addwf	___bmul@product,f
  6584     1452                     l3264:
  6585     1452  1003               	clrc
  6586     1453  0DF2               	rlf	___bmul@multiplicand,f
  6587     1454                     l3266:
  6588     1454  1003               	clrc
  6589     1455  0CF4               	rrf	___bmul@multiplier,f
  6590     1456  0874               	movf	___bmul@multiplier,w
  6591     1457  1D03               	btfss	3,2
  6592     1458  2C5A               	goto	u4031
  6593     1459  2C5B               	goto	u4030
  6594     145A                     u4031:
  6595     145A  2C4C               	goto	l3260
  6596     145B                     u4030:
  6597     145B                     l3268:
  6598     145B  0873               	movf	___bmul@product,w
  6599     145C                     l466:
  6600     145C  0008               	return
  6601     145D                     __end_of___bmul:
  6602                           
  6603                           	psect	text14
  6604     15C4                     __ptext14:	
  6605 ;; *************** function ___awmod *****************
  6606 ;; Defined at:
  6607 ;;		line 5 in file "C:\Program Files\Microchip\xc8\v3.00\pic\sources\c99\common\awmod.c"
  6608 ;; Parameters:    Size  Location     Type
  6609 ;;  divisor         2    2[COMMON] int 
  6610 ;;  dividend        2    4[COMMON] int 
  6611 ;; Auto vars:     Size  Location     Type
  6612 ;;  sign            1    7[COMMON] unsigned char 
  6613 ;;  counter         1    6[COMMON] unsigned char 
  6614 ;; Return value:  Size  Location     Type
  6615 ;;                  2    2[COMMON] int 
  6616 ;; Registers used:
  6617 ;;		wreg, status,2, status,0
  6618 ;; Tracked objects:
  6619 ;;		On entry : 0/0
  6620 ;;		On exit  : 0/0
  6621 ;;		Unchanged: 0/0
  6622 ;; Data sizes:     COMMON   BANK0   BANK1   BANK3   BANK2
  6623 ;;      Params:         4       0       0       0       0
  6624 ;;      Locals:         2       0       0       0       0
  6625 ;;      Temps:          0       0       0       0       0
  6626 ;;      Totals:         6       0       0       0       0
  6627 ;;Total ram usage:        6 bytes
  6628 ;; Hardware stack levels used: 1
  6629 ;; Hardware stack levels required when called: 1
  6630 ;; This function calls:
  6631 ;;		Nothing
  6632 ;; This function is called by:
  6633 ;;		_washing_program_
  6634 ;;		_water_level_screen
  6635 ;;		_start
  6636 ;; This function uses a non-reentrant model
  6637 ;;
  6638                           
  6639     15C4                     ___awmod:	
  6640                           ;psect for function ___awmod
  6641                           
  6642     15C4                     l3316:	
  6643                           ;incstack = 0
  6644                           ; Regs used in ___awmod: [wreg+status,2+status,0]
  6645                           
  6646     15C4  01F7               	clrf	___awmod@sign
  6647     15C5                     l3318:
  6648     15C5  1FF5               	btfss	___awmod@dividend+1,7
  6649     15C6  2DC8               	goto	u4141
  6650     15C7  2DC9               	goto	u4140
  6651     15C8                     u4141:
  6652     15C8  2DD0               	goto	l3324
  6653     15C9                     u4140:
  6654     15C9                     l3320:
  6655     15C9  09F4               	comf	___awmod@dividend,f
  6656     15CA  09F5               	comf	___awmod@dividend+1,f
  6657     15CB  0AF4               	incf	___awmod@dividend,f
  6658     15CC  1903               	skipnz
  6659     15CD  0AF5               	incf	___awmod@dividend+1,f
  6660     15CE                     l3322:
  6661     15CE  3001               	movlw	1
  6662     15CF  00F7               	movwf	___awmod@sign
  6663     15D0                     l3324:
  6664     15D0  1FF3               	btfss	___awmod@divisor+1,7
  6665     15D1  2DD3               	goto	u4151
  6666     15D2  2DD4               	goto	u4150
  6667     15D3                     u4151:
  6668     15D3  2DD9               	goto	l3328
  6669     15D4                     u4150:
  6670     15D4                     l3326:
  6671     15D4  09F2               	comf	___awmod@divisor,f
  6672     15D5  09F3               	comf	___awmod@divisor+1,f
  6673     15D6  0AF2               	incf	___awmod@divisor,f
  6674     15D7  1903               	skipnz
  6675     15D8  0AF3               	incf	___awmod@divisor+1,f
  6676     15D9                     l3328:
  6677     15D9  0872               	movf	___awmod@divisor,w
  6678     15DA  0473               	iorwf	___awmod@divisor+1,w
  6679     15DB  1903               	btfsc	3,2
  6680     15DC  2DDE               	goto	u4161
  6681     15DD  2DDF               	goto	u4160
  6682     15DE                     u4161:
  6683     15DE  2E0C               	goto	l3346
  6684     15DF                     u4160:
  6685     15DF                     l3330:
  6686     15DF  3001               	movlw	1
  6687     15E0  00F6               	movwf	___awmod@counter
  6688     15E1  2DEB               	goto	l3336
  6689     15E2                     l3332:
  6690     15E2  3001               	movlw	1
  6691     15E3                     u4175:
  6692     15E3  1003               	clrc
  6693     15E4  0DF2               	rlf	___awmod@divisor,f
  6694     15E5  0DF3               	rlf	___awmod@divisor+1,f
  6695     15E6  3EFF               	addlw	-1
  6696     15E7  1D03               	skipz
  6697     15E8  2DE3               	goto	u4175
  6698     15E9                     l3334:
  6699     15E9  3001               	movlw	1
  6700     15EA  07F6               	addwf	___awmod@counter,f
  6701     15EB                     l3336:
  6702     15EB  1FF3               	btfss	___awmod@divisor+1,7
  6703     15EC  2DEE               	goto	u4181
  6704     15ED  2DEF               	goto	u4180
  6705     15EE                     u4181:
  6706     15EE  2DE2               	goto	l3332
  6707     15EF                     u4180:
  6708     15EF                     l3338:
  6709     15EF  0873               	movf	___awmod@divisor+1,w
  6710     15F0  0275               	subwf	___awmod@dividend+1,w
  6711     15F1  1D03               	skipz
  6712     15F2  2DF5               	goto	u4195
  6713     15F3  0872               	movf	___awmod@divisor,w
  6714     15F4  0274               	subwf	___awmod@dividend,w
  6715     15F5                     u4195:
  6716     15F5  1C03               	skipc
  6717     15F6  2DF8               	goto	u4191
  6718     15F7  2DF9               	goto	u4190
  6719     15F8                     u4191:
  6720     15F8  2DFF               	goto	l3342
  6721     15F9                     u4190:
  6722     15F9                     l3340:
  6723     15F9  0872               	movf	___awmod@divisor,w
  6724     15FA  02F4               	subwf	___awmod@dividend,f
  6725     15FB  0873               	movf	___awmod@divisor+1,w
  6726     15FC  1C03               	skipc
  6727     15FD  03F5               	decf	___awmod@dividend+1,f
  6728     15FE  02F5               	subwf	___awmod@dividend+1,f
  6729     15FF                     l3342:
  6730     15FF  3001               	movlw	1
  6731     1600                     u4205:
  6732     1600  1003               	clrc
  6733     1601  0CF3               	rrf	___awmod@divisor+1,f
  6734     1602  0CF2               	rrf	___awmod@divisor,f
  6735     1603  3EFF               	addlw	-1
  6736     1604  1D03               	skipz
  6737     1605  2E00               	goto	u4205
  6738     1606                     l3344:
  6739     1606  3001               	movlw	1
  6740     1607  02F6               	subwf	___awmod@counter,f
  6741     1608  1D03               	btfss	3,2
  6742     1609  2E0B               	goto	u4211
  6743     160A  2E0C               	goto	u4210
  6744     160B                     u4211:
  6745     160B  2DEF               	goto	l3338
  6746     160C                     u4210:
  6747     160C                     l3346:
  6748     160C  0877               	movf	___awmod@sign,w
  6749     160D  1903               	btfsc	3,2
  6750     160E  2E10               	goto	u4221
  6751     160F  2E11               	goto	u4220
  6752     1610                     u4221:
  6753     1610  2E16               	goto	l3350
  6754     1611                     u4220:
  6755     1611                     l3348:
  6756     1611  09F4               	comf	___awmod@dividend,f
  6757     1612  09F5               	comf	___awmod@dividend+1,f
  6758     1613  0AF4               	incf	___awmod@dividend,f
  6759     1614  1903               	skipnz
  6760     1615  0AF5               	incf	___awmod@dividend+1,f
  6761     1616                     l3350:
  6762     1616  0875               	movf	___awmod@dividend+1,w
  6763     1617  00F3               	movwf	?___awmod+1
  6764     1618  0874               	movf	___awmod@dividend,w
  6765     1619  00F2               	movwf	?___awmod
  6766     161A                     l606:
  6767     161A  0008               	return
  6768     161B                     __end_of___awmod:
  6769                           
  6770                           	psect	text15
  6771     161B                     __ptext15:	
  6772 ;; *************** function ___awdiv *****************
  6773 ;; Defined at:
  6774 ;;		line 5 in file "C:\Program Files\Microchip\xc8\v3.00\pic\sources\c99\common\awdiv.c"
  6775 ;; Parameters:    Size  Location     Type
  6776 ;;  divisor         2    2[COMMON] int 
  6777 ;;  dividend        2    4[COMMON] int 
  6778 ;; Auto vars:     Size  Location     Type
  6779 ;;  quotient        2    2[BANK0 ] int 
  6780 ;;  sign            1    1[BANK0 ] unsigned char 
  6781 ;;  counter         1    0[BANK0 ] unsigned char 
  6782 ;; Return value:  Size  Location     Type
  6783 ;;                  2    2[COMMON] int 
  6784 ;; Registers used:
  6785 ;;		wreg, status,2, status,0
  6786 ;; Tracked objects:
  6787 ;;		On entry : 0/0
  6788 ;;		On exit  : 0/0
  6789 ;;		Unchanged: 0/0
  6790 ;; Data sizes:     COMMON   BANK0   BANK1   BANK3   BANK2
  6791 ;;      Params:         4       0       0       0       0
  6792 ;;      Locals:         0       4       0       0       0
  6793 ;;      Temps:          0       0       0       0       0
  6794 ;;      Totals:         4       4       0       0       0
  6795 ;;Total ram usage:        8 bytes
  6796 ;; Hardware stack levels used: 1
  6797 ;; Hardware stack levels required when called: 1
  6798 ;; This function calls:
  6799 ;;		Nothing
  6800 ;; This function is called by:
  6801 ;;		_start
  6802 ;; This function uses a non-reentrant model
  6803 ;;
  6804                           
  6805     161B                     ___awdiv:	
  6806                           ;psect for function ___awdiv
  6807                           
  6808     161B                     l4092:	
  6809                           ;incstack = 0
  6810                           ; Regs used in ___awdiv: [wreg+status,2+status,0]
  6811                           
  6812     161B  1283               	bcf	3,5	;RP0=0, select bank0
  6813     161C  1303               	bcf	3,6	;RP1=0, select bank0
  6814     161D  01A1               	clrf	___awdiv@sign
  6815     161E                     l4094:
  6816     161E  1FF3               	btfss	___awdiv@divisor+1,7
  6817     161F  2E21               	goto	u5311
  6818     1620  2E22               	goto	u5310
  6819     1621                     u5311:
  6820     1621  2E29               	goto	l4100
  6821     1622                     u5310:
  6822     1622                     l4096:
  6823     1622  09F2               	comf	___awdiv@divisor,f
  6824     1623  09F3               	comf	___awdiv@divisor+1,f
  6825     1624  0AF2               	incf	___awdiv@divisor,f
  6826     1625  1903               	skipnz
  6827     1626  0AF3               	incf	___awdiv@divisor+1,f
  6828     1627                     l4098:
  6829     1627  3001               	movlw	1
  6830     1628  00A1               	movwf	___awdiv@sign
  6831     1629                     l4100:
  6832     1629  1FF5               	btfss	___awdiv@dividend+1,7
  6833     162A  2E2C               	goto	u5321
  6834     162B  2E2D               	goto	u5320
  6835     162C                     u5321:
  6836     162C  2E34               	goto	l4106
  6837     162D                     u5320:
  6838     162D                     l4102:
  6839     162D  09F4               	comf	___awdiv@dividend,f
  6840     162E  09F5               	comf	___awdiv@dividend+1,f
  6841     162F  0AF4               	incf	___awdiv@dividend,f
  6842     1630  1903               	skipnz
  6843     1631  0AF5               	incf	___awdiv@dividend+1,f
  6844     1632                     l4104:
  6845     1632  3001               	movlw	1
  6846     1633  06A1               	xorwf	___awdiv@sign,f
  6847     1634                     l4106:
  6848     1634  01A2               	clrf	___awdiv@quotient
  6849     1635  01A3               	clrf	___awdiv@quotient+1
  6850     1636                     l4108:
  6851     1636  0872               	movf	___awdiv@divisor,w
  6852     1637  0473               	iorwf	___awdiv@divisor+1,w
  6853     1638  1903               	btfsc	3,2
  6854     1639  2E3B               	goto	u5331
  6855     163A  2E3C               	goto	u5330
  6856     163B                     u5331:
  6857     163B  2E71               	goto	l4128
  6858     163C                     u5330:
  6859     163C                     l4110:
  6860     163C  3001               	movlw	1
  6861     163D  00A0               	movwf	___awdiv@counter
  6862     163E  2E48               	goto	l4116
  6863     163F                     l4112:
  6864     163F  3001               	movlw	1
  6865     1640                     u5345:
  6866     1640  1003               	clrc
  6867     1641  0DF2               	rlf	___awdiv@divisor,f
  6868     1642  0DF3               	rlf	___awdiv@divisor+1,f
  6869     1643  3EFF               	addlw	-1
  6870     1644  1D03               	skipz
  6871     1645  2E40               	goto	u5345
  6872     1646                     l4114:
  6873     1646  3001               	movlw	1
  6874     1647  07A0               	addwf	___awdiv@counter,f
  6875     1648                     l4116:
  6876     1648  1FF3               	btfss	___awdiv@divisor+1,7
  6877     1649  2E4B               	goto	u5351
  6878     164A  2E4C               	goto	u5350
  6879     164B                     u5351:
  6880     164B  2E3F               	goto	l4112
  6881     164C                     u5350:
  6882     164C                     l4118:
  6883     164C  3001               	movlw	1
  6884     164D                     u5365:
  6885     164D  1003               	clrc
  6886     164E  0DA2               	rlf	___awdiv@quotient,f
  6887     164F  0DA3               	rlf	___awdiv@quotient+1,f
  6888     1650  3EFF               	addlw	-1
  6889     1651  1D03               	skipz
  6890     1652  2E4D               	goto	u5365
  6891     1653  0873               	movf	___awdiv@divisor+1,w
  6892     1654  0275               	subwf	___awdiv@dividend+1,w
  6893     1655  1D03               	skipz
  6894     1656  2E59               	goto	u5375
  6895     1657  0872               	movf	___awdiv@divisor,w
  6896     1658  0274               	subwf	___awdiv@dividend,w
  6897     1659                     u5375:
  6898     1659  1C03               	skipc
  6899     165A  2E5C               	goto	u5371
  6900     165B  2E5D               	goto	u5370
  6901     165C                     u5371:
  6902     165C  2E64               	goto	l4124
  6903     165D                     u5370:
  6904     165D                     l4120:
  6905     165D  0872               	movf	___awdiv@divisor,w
  6906     165E  02F4               	subwf	___awdiv@dividend,f
  6907     165F  0873               	movf	___awdiv@divisor+1,w
  6908     1660  1C03               	skipc
  6909     1661  03F5               	decf	___awdiv@dividend+1,f
  6910     1662  02F5               	subwf	___awdiv@dividend+1,f
  6911     1663                     l4122:
  6912     1663  1422               	bsf	___awdiv@quotient,0
  6913     1664                     l4124:
  6914     1664  3001               	movlw	1
  6915     1665                     u5385:
  6916     1665  1003               	clrc
  6917     1666  0CF3               	rrf	___awdiv@divisor+1,f
  6918     1667  0CF2               	rrf	___awdiv@divisor,f
  6919     1668  3EFF               	addlw	-1
  6920     1669  1D03               	skipz
  6921     166A  2E65               	goto	u5385
  6922     166B                     l4126:
  6923     166B  3001               	movlw	1
  6924     166C  02A0               	subwf	___awdiv@counter,f
  6925     166D  1D03               	btfss	3,2
  6926     166E  2E70               	goto	u5391
  6927     166F  2E71               	goto	u5390
  6928     1670                     u5391:
  6929     1670  2E4C               	goto	l4118
  6930     1671                     u5390:
  6931     1671                     l4128:
  6932     1671  0821               	movf	___awdiv@sign,w
  6933     1672  1903               	btfsc	3,2
  6934     1673  2E75               	goto	u5401
  6935     1674  2E76               	goto	u5400
  6936     1675                     u5401:
  6937     1675  2E7B               	goto	l4132
  6938     1676                     u5400:
  6939     1676                     l4130:
  6940     1676  09A2               	comf	___awdiv@quotient,f
  6941     1677  09A3               	comf	___awdiv@quotient+1,f
  6942     1678  0AA2               	incf	___awdiv@quotient,f
  6943     1679  1903               	skipnz
  6944     167A  0AA3               	incf	___awdiv@quotient+1,f
  6945     167B                     l4132:
  6946     167B  0823               	movf	___awdiv@quotient+1,w
  6947     167C  00F3               	movwf	?___awdiv+1
  6948     167D  0822               	movf	___awdiv@quotient,w
  6949     167E  00F2               	movwf	?___awdiv
  6950     167F                     l593:
  6951     167F  0008               	return
  6952     1680                     __end_of___awdiv:
  6953                           
  6954                           	psect	text16
  6955     0C61                     __ptext16:	
  6956 ;; *************** function _set_time *****************
  6957 ;; Defined at:
  6958 ;;		line 88 in file "washing_machine_function_def.c"
  6959 ;; Parameters:    Size  Location     Type
  6960 ;;		None
  6961 ;; Auto vars:     Size  Location     Type
  6962 ;;		None
  6963 ;; Return value:  Size  Location     Type
  6964 ;;                  1    wreg      void 
  6965 ;; Registers used:
  6966 ;;		wreg, fsr0l, fsr0h, status,2, status,0
  6967 ;; Tracked objects:
  6968 ;;		On entry : 0/0
  6969 ;;		On exit  : 0/0
  6970 ;;		Unchanged: 0/0
  6971 ;; Data sizes:     COMMON   BANK0   BANK1   BANK3   BANK2
  6972 ;;      Params:         0       0       0       0       0
  6973 ;;      Locals:         0       0       0       0       0
  6974 ;;      Temps:          0       0       0       0       0
  6975 ;;      Totals:         0       0       0       0       0
  6976 ;;Total ram usage:        0 bytes
  6977 ;; Hardware stack levels used: 1
  6978 ;; Hardware stack levels required when called: 1
  6979 ;; This function calls:
  6980 ;;		Nothing
  6981 ;; This function is called by:
  6982 ;;		_main
  6983 ;; This function uses a non-reentrant model
  6984 ;;
  6985                           
  6986     0C61                     _set_time:	
  6987                           ;psect for function _set_time
  6988                           
  6989     0C61                     l3692:	
  6990                           ;incstack = 0
  6991                           ; Regs used in _set_time: [wreg-fsr0h+status,2+status,0]
  6992                           
  6993                           
  6994                           ;washing_machine_function_def.c: 89:     switch(program_no){
  6995     0C61  2D7F               	goto	l3820
  6996     0C62                     l234:	
  6997                           ;washing_machine_function_def.c: 92:                 case 1: sec = 33;
  6998                           
  6999     0C62  3021               	movlw	33
  7000     0C63  00EE               	movwf	_sec
  7001     0C64                     l3694:
  7002                           
  7003                           ;washing_machine_function_def.c: 93:                 min=0;
  7004     0C64  01ED               	clrf	_min
  7005                           
  7006                           ;washing_machine_function_def.c: 94:                     break;
  7007     0C65  2DA7               	goto	l329
  7008     0C66                     l237:	
  7009                           ;washing_machine_function_def.c: 96:                 case 2: sec = 41;
  7010                           
  7011     0C66  3029               	movlw	41
  7012     0C67  00EE               	movwf	_sec
  7013     0C68  2C64               	goto	l3694
  7014     0C69                     l239:	
  7015                           ;washing_machine_function_def.c: 100:                 case 4: sec = 45;
  7016                           
  7017     0C69  302D               	movlw	45
  7018     0C6A  00EE               	movwf	_sec
  7019     0C6B  2C64               	goto	l3694
  7020     0C6C                     l3702:
  7021     0C6C  086B               	movf	_level,w
  7022                           
  7023                           ; Switch size 1, requested type "simple"
  7024                           ; Number of cases is 5, Range of values is 0 to 4
  7025                           ; switch strategies available:
  7026                           ; Name         Instructions Cycles
  7027                           ; simple_byte           16     9 (average)
  7028                           ; direct_byte           23     8 (fixed)
  7029                           ; jumptable            260     6 (fixed)
  7030                           ;	Chosen strategy is simple_byte
  7031     0C6D  3A00               	xorlw	0	; case 0
  7032     0C6E  1903               	skipnz
  7033     0C6F  2C66               	goto	l237
  7034     0C70  3A01               	xorlw	1	; case 1
  7035     0C71  1903               	skipnz
  7036     0C72  2C62               	goto	l234
  7037     0C73  3A03               	xorlw	3	; case 2
  7038     0C74  1903               	skipnz
  7039     0C75  2C66               	goto	l237
  7040     0C76  3A01               	xorlw	1	; case 3
  7041     0C77  1903               	skipnz
  7042     0C78  2C69               	goto	l239
  7043     0C79  3A07               	xorlw	7	; case 4
  7044     0C7A  1903               	skipnz
  7045     0C7B  2C69               	goto	l239
  7046     0C7C  2DA7               	goto	l329
  7047     0C7D                     l3704:
  7048                           
  7049                           ;washing_machine_function_def.c: 108:                     min=0;
  7050     0C7D  01ED               	clrf	_min
  7051     0C7E                     l3706:
  7052                           
  7053                           ;washing_machine_function_def.c: 109:                     sec = 40;
  7054     0C7E  3028               	movlw	40
  7055     0C7F  00EE               	movwf	_sec
  7056                           
  7057                           ;washing_machine_function_def.c: 110:                     break;
  7058     0C80  2DA7               	goto	l329
  7059     0C81                     l3708:
  7060                           
  7061                           ;washing_machine_function_def.c: 113:                     min=0;
  7062     0C81  01ED               	clrf	_min
  7063     0C82                     l3710:
  7064                           
  7065                           ;washing_machine_function_def.c: 114:                     sec = 50;
  7066     0C82  3032               	movlw	50
  7067     0C83  00EE               	movwf	_sec
  7068                           
  7069                           ;washing_machine_function_def.c: 115:                     break;
  7070     0C84  2DA7               	goto	l329
  7071     0C85                     l3712:
  7072                           
  7073                           ;washing_machine_function_def.c: 118:                     min=0;
  7074     0C85  01ED               	clrf	_min
  7075     0C86                     l3714:
  7076                           
  7077                           ;washing_machine_function_def.c: 119:                     sec = 57;
  7078     0C86  3039               	movlw	57
  7079     0C87  00EE               	movwf	_sec
  7080                           
  7081                           ;washing_machine_function_def.c: 120:                     break;
  7082     0C88  2DA7               	goto	l329
  7083     0C89                     l3718:
  7084     0C89  086B               	movf	_level,w
  7085                           
  7086                           ; Switch size 1, requested type "simple"
  7087                           ; Number of cases is 5, Range of values is 0 to 4
  7088                           ; switch strategies available:
  7089                           ; Name         Instructions Cycles
  7090                           ; simple_byte           16     9 (average)
  7091                           ; direct_byte           23     8 (fixed)
  7092                           ; jumptable            260     6 (fixed)
  7093                           ;	Chosen strategy is simple_byte
  7094     0C8A  3A00               	xorlw	0	; case 0
  7095     0C8B  1903               	skipnz
  7096     0C8C  2C81               	goto	l3708
  7097     0C8D  3A01               	xorlw	1	; case 1
  7098     0C8E  1903               	skipnz
  7099     0C8F  2C7D               	goto	l3704
  7100     0C90  3A03               	xorlw	3	; case 2
  7101     0C91  1903               	skipnz
  7102     0C92  2C81               	goto	l3708
  7103     0C93  3A01               	xorlw	1	; case 3
  7104     0C94  1903               	skipnz
  7105     0C95  2C85               	goto	l3712
  7106     0C96  3A07               	xorlw	7	; case 4
  7107     0C97  1903               	skipnz
  7108     0C98  2C85               	goto	l3712
  7109     0C99  2DA7               	goto	l329
  7110     0C9A                     l3720:
  7111                           
  7112                           ;washing_machine_function_def.c: 128:                     min=0;
  7113     0C9A  01ED               	clrf	_min
  7114     0C9B                     l3722:
  7115                           
  7116                           ;washing_machine_function_def.c: 129:                     sec = 26;
  7117     0C9B  301A               	movlw	26
  7118     0C9C  00EE               	movwf	_sec
  7119                           
  7120                           ;washing_machine_function_def.c: 130:                     break;
  7121     0C9D  2DA7               	goto	l329
  7122     0C9E                     l3724:
  7123                           
  7124                           ;washing_machine_function_def.c: 133:                     min=0;
  7125     0C9E  01ED               	clrf	_min
  7126     0C9F                     l3726:
  7127                           
  7128                           ;washing_machine_function_def.c: 134:                     sec = 31;
  7129     0C9F  301F               	movlw	31
  7130     0CA0  00EE               	movwf	_sec
  7131                           
  7132                           ;washing_machine_function_def.c: 135:                     break;
  7133     0CA1  2DA7               	goto	l329
  7134     0CA2                     l3730:
  7135     0CA2  086B               	movf	_level,w
  7136                           
  7137                           ; Switch size 1, requested type "simple"
  7138                           ; Number of cases is 5, Range of values is 0 to 4
  7139                           ; switch strategies available:
  7140                           ; Name         Instructions Cycles
  7141                           ; simple_byte           16     9 (average)
  7142                           ; direct_byte           23     8 (fixed)
  7143                           ; jumptable            260     6 (fixed)
  7144                           ;	Chosen strategy is simple_byte
  7145     0CA3  3A00               	xorlw	0	; case 0
  7146     0CA4  1903               	skipnz
  7147     0CA5  2C9A               	goto	l3720
  7148     0CA6  3A01               	xorlw	1	; case 1
  7149     0CA7  1903               	skipnz
  7150     0CA8  2C9A               	goto	l3720
  7151     0CA9  3A03               	xorlw	3	; case 2
  7152     0CAA  1903               	skipnz
  7153     0CAB  2C9A               	goto	l3720
  7154     0CAC  3A01               	xorlw	1	; case 3
  7155     0CAD  1903               	skipnz
  7156     0CAE  2C9E               	goto	l3724
  7157     0CAF  3A07               	xorlw	7	; case 4
  7158     0CB0  1903               	skipnz
  7159     0CB1  2C9E               	goto	l3724
  7160     0CB2  2DA7               	goto	l329
  7161     0CB3                     l261:	
  7162                           ;washing_machine_function_def.c: 142:                 case 2:
  7163                           
  7164     0CB3                     l263:	
  7165                           ;washing_machine_function_def.c: 144:                 case 4:
  7166                           
  7167                           
  7168                           ;washing_machine_function_def.c: 145:                     min = 1;
  7169     0CB3  3001               	movlw	1
  7170     0CB4  00ED               	movwf	_min
  7171                           
  7172                           ;washing_machine_function_def.c: 146:                     sec = 16;
  7173     0CB5  3010               	movlw	16
  7174     0CB6  00EE               	movwf	_sec
  7175                           
  7176                           ;washing_machine_function_def.c: 147:                     break;
  7177     0CB7  2DA7               	goto	l329
  7178     0CB8                     l3734:
  7179     0CB8  086B               	movf	_level,w
  7180                           
  7181                           ; Switch size 1, requested type "simple"
  7182                           ; Number of cases is 5, Range of values is 0 to 4
  7183                           ; switch strategies available:
  7184                           ; Name         Instructions Cycles
  7185                           ; simple_byte           16     9 (average)
  7186                           ; direct_byte           23     8 (fixed)
  7187                           ; jumptable            260     6 (fixed)
  7188                           ;	Chosen strategy is simple_byte
  7189     0CB9  3A00               	xorlw	0	; case 0
  7190     0CBA  1903               	skipnz
  7191     0CBB  2CB3               	goto	l263
  7192     0CBC  3A01               	xorlw	1	; case 1
  7193     0CBD  1903               	skipnz
  7194     0CBE  2CB3               	goto	l261
  7195     0CBF  3A03               	xorlw	3	; case 2
  7196     0CC0  1903               	skipnz
  7197     0CC1  2CB3               	goto	l263
  7198     0CC2  3A01               	xorlw	1	; case 3
  7199     0CC3  1903               	skipnz
  7200     0CC4  2CB3               	goto	l263
  7201     0CC5  3A07               	xorlw	7	; case 4
  7202     0CC6  1903               	skipnz
  7203     0CC7  2CB3               	goto	l263
  7204     0CC8  2DA7               	goto	l329
  7205     0CC9                     l269:	
  7206                           ;washing_machine_function_def.c: 154:                 case 2:
  7207                           
  7208     0CC9                     l271:	
  7209                           ;washing_machine_function_def.c: 156:                 case 4:
  7210                           
  7211                           
  7212                           ;washing_machine_function_def.c: 157:                     min = 1;
  7213     0CC9  3001               	movlw	1
  7214     0CCA  00ED               	movwf	_min
  7215                           
  7216                           ;washing_machine_function_def.c: 158:                     sec = 36;
  7217     0CCB  3024               	movlw	36
  7218     0CCC  00EE               	movwf	_sec
  7219                           
  7220                           ;washing_machine_function_def.c: 159:                     break;
  7221     0CCD  2DA7               	goto	l329
  7222     0CCE                     l3738:
  7223     0CCE  086B               	movf	_level,w
  7224                           
  7225                           ; Switch size 1, requested type "simple"
  7226                           ; Number of cases is 5, Range of values is 0 to 4
  7227                           ; switch strategies available:
  7228                           ; Name         Instructions Cycles
  7229                           ; simple_byte           16     9 (average)
  7230                           ; direct_byte           23     8 (fixed)
  7231                           ; jumptable            260     6 (fixed)
  7232                           ;	Chosen strategy is simple_byte
  7233     0CCF  3A00               	xorlw	0	; case 0
  7234     0CD0  1903               	skipnz
  7235     0CD1  2CC9               	goto	l271
  7236     0CD2  3A01               	xorlw	1	; case 1
  7237     0CD3  1903               	skipnz
  7238     0CD4  2CC9               	goto	l269
  7239     0CD5  3A03               	xorlw	3	; case 2
  7240     0CD6  1903               	skipnz
  7241     0CD7  2CC9               	goto	l271
  7242     0CD8  3A01               	xorlw	1	; case 3
  7243     0CD9  1903               	skipnz
  7244     0CDA  2CC9               	goto	l271
  7245     0CDB  3A07               	xorlw	7	; case 4
  7246     0CDC  1903               	skipnz
  7247     0CDD  2CC9               	goto	l271
  7248     0CDE  2DA7               	goto	l329
  7249     0CDF                     l3744:
  7250                           
  7251                           ;washing_machine_function_def.c: 172:                     min = 0;
  7252     0CDF  01ED               	clrf	_min
  7253     0CE0                     l3746:
  7254                           
  7255                           ;washing_machine_function_def.c: 173:                     sec = 36;
  7256     0CE0  3024               	movlw	36
  7257     0CE1  00EE               	movwf	_sec
  7258                           
  7259                           ;washing_machine_function_def.c: 174:                     break;
  7260     0CE2  2DA7               	goto	l329
  7261     0CE3                     l3750:
  7262     0CE3  086B               	movf	_level,w
  7263                           
  7264                           ; Switch size 1, requested type "simple"
  7265                           ; Number of cases is 5, Range of values is 0 to 4
  7266                           ; switch strategies available:
  7267                           ; Name         Instructions Cycles
  7268                           ; simple_byte           16     9 (average)
  7269                           ; direct_byte           23     8 (fixed)
  7270                           ; jumptable            260     6 (fixed)
  7271                           ;	Chosen strategy is simple_byte
  7272     0CE4  3A00               	xorlw	0	; case 0
  7273     0CE5  1903               	skipnz
  7274     0CE6  2C9E               	goto	l3724
  7275     0CE7  3A01               	xorlw	1	; case 1
  7276     0CE8  1903               	skipnz
  7277     0CE9  2C9E               	goto	l3724
  7278     0CEA  3A03               	xorlw	3	; case 2
  7279     0CEB  1903               	skipnz
  7280     0CEC  2C9E               	goto	l3724
  7281     0CED  3A01               	xorlw	1	; case 3
  7282     0CEE  1903               	skipnz
  7283     0CEF  2CDF               	goto	l3744
  7284     0CF0  3A07               	xorlw	7	; case 4
  7285     0CF1  1903               	skipnz
  7286     0CF2  2CDF               	goto	l3744
  7287     0CF3  2DA7               	goto	l329
  7288     0CF4                     l286:	
  7289                           ;washing_machine_function_def.c: 182:                 case 3:
  7290                           
  7291     0CF4                     l3752:
  7292                           
  7293                           ;washing_machine_function_def.c: 184:                     min = 0;
  7294     0CF4  01ED               	clrf	_min
  7295     0CF5                     l3754:
  7296                           
  7297                           ;washing_machine_function_def.c: 185:                     sec = 29;
  7298     0CF5  301D               	movlw	29
  7299     0CF6  00EE               	movwf	_sec
  7300                           
  7301                           ;washing_machine_function_def.c: 186:                     break;
  7302     0CF7  2DA7               	goto	l329
  7303     0CF8                     l3758:
  7304     0CF8  086B               	movf	_level,w
  7305                           
  7306                           ; Switch size 1, requested type "simple"
  7307                           ; Number of cases is 5, Range of values is 0 to 4
  7308                           ; switch strategies available:
  7309                           ; Name         Instructions Cycles
  7310                           ; simple_byte           16     9 (average)
  7311                           ; direct_byte           23     8 (fixed)
  7312                           ; jumptable            260     6 (fixed)
  7313                           ;	Chosen strategy is simple_byte
  7314     0CF9  3A00               	xorlw	0	; case 0
  7315     0CFA  1903               	skipnz
  7316     0CFB  2CF4               	goto	l3752
  7317     0CFC  3A01               	xorlw	1	; case 1
  7318     0CFD  1903               	skipnz
  7319     0CFE  2CF4               	goto	l286
  7320     0CFF  3A03               	xorlw	3	; case 2
  7321     0D00  1903               	skipnz
  7322     0D01  2CF4               	goto	l3752
  7323     0D02  3A01               	xorlw	1	; case 3
  7324     0D03  1903               	skipnz
  7325     0D04  2CF4               	goto	l3752
  7326     0D05  3A07               	xorlw	7	; case 4
  7327     0D06  1903               	skipnz
  7328     0D07  2CF4               	goto	l3752
  7329     0D08  2DA7               	goto	l329
  7330     0D09                     l3760:
  7331                           
  7332                           ;washing_machine_function_def.c: 192:                     min=0;
  7333     0D09  01ED               	clrf	_min
  7334     0D0A                     l3762:
  7335                           
  7336                           ;washing_machine_function_def.c: 193:                     sec=46;
  7337     0D0A  302E               	movlw	46
  7338     0D0B  00EE               	movwf	_sec
  7339                           
  7340                           ;washing_machine_function_def.c: 194:                     break;
  7341     0D0C  2DA7               	goto	l329
  7342     0D0D                     l3764:
  7343                           
  7344                           ;washing_machine_function_def.c: 197:                     min=0;
  7345     0D0D  01ED               	clrf	_min
  7346     0D0E                     l3766:
  7347                           
  7348                           ;washing_machine_function_def.c: 198:                     sec=53;
  7349     0D0E  3035               	movlw	53
  7350     0D0F  00EE               	movwf	_sec
  7351                           
  7352                           ;washing_machine_function_def.c: 199:                     break;
  7353     0D10  2DA7               	goto	l329
  7354     0D11                     l296:	
  7355                           ;washing_machine_function_def.c: 201:                 case 4:
  7356                           
  7357                           
  7358                           ;washing_machine_function_def.c: 202:                     min = 1;
  7359     0D11  3001               	movlw	1
  7360     0D12  00ED               	movwf	_min
  7361     0D13                     l3768:
  7362                           
  7363                           ;washing_machine_function_def.c: 203:                     sec = 0;
  7364     0D13  01EE               	clrf	_sec
  7365                           
  7366                           ;washing_machine_function_def.c: 204:                     break;
  7367     0D14  2DA7               	goto	l329
  7368     0D15                     l3772:
  7369     0D15  086B               	movf	_level,w
  7370                           
  7371                           ; Switch size 1, requested type "simple"
  7372                           ; Number of cases is 5, Range of values is 0 to 4
  7373                           ; switch strategies available:
  7374                           ; Name         Instructions Cycles
  7375                           ; simple_byte           16     9 (average)
  7376                           ; direct_byte           23     8 (fixed)
  7377                           ; jumptable            260     6 (fixed)
  7378                           ;	Chosen strategy is simple_byte
  7379     0D16  3A00               	xorlw	0	; case 0
  7380     0D17  1903               	skipnz
  7381     0D18  2D0D               	goto	l3764
  7382     0D19  3A01               	xorlw	1	; case 1
  7383     0D1A  1903               	skipnz
  7384     0D1B  2D09               	goto	l3760
  7385     0D1C  3A03               	xorlw	3	; case 2
  7386     0D1D  1903               	skipnz
  7387     0D1E  2D0D               	goto	l3764
  7388     0D1F  3A01               	xorlw	1	; case 3
  7389     0D20  1903               	skipnz
  7390     0D21  2D11               	goto	l296
  7391     0D22  3A07               	xorlw	7	; case 4
  7392     0D23  1903               	skipnz
  7393     0D24  2D11               	goto	l296
  7394     0D25  2DA7               	goto	l329
  7395     0D26                     l3774:
  7396                           
  7397                           ;washing_machine_function_def.c: 210:                     min=0;
  7398     0D26  01ED               	clrf	_min
  7399     0D27                     l3776:
  7400                           
  7401                           ;washing_machine_function_def.c: 211:                     sec=18;
  7402     0D27  3012               	movlw	18
  7403     0D28  00EE               	movwf	_sec
  7404                           
  7405                           ;washing_machine_function_def.c: 212:                     break;
  7406     0D29  2DA7               	goto	l329
  7407     0D2A                     l303:	
  7408                           ;washing_machine_function_def.c: 215:                 case 3:
  7409                           
  7410     0D2A                     l3778:
  7411                           
  7412                           ;washing_machine_function_def.c: 217:                     min = 0;
  7413     0D2A  01ED               	clrf	_min
  7414     0D2B                     l3780:
  7415                           
  7416                           ;washing_machine_function_def.c: 218:                     sec = 20;
  7417     0D2B  3014               	movlw	20
  7418     0D2C  00EE               	movwf	_sec
  7419                           
  7420                           ;washing_machine_function_def.c: 219:                     break;
  7421     0D2D  2DA7               	goto	l329
  7422     0D2E                     l3784:
  7423     0D2E  086B               	movf	_level,w
  7424                           
  7425                           ; Switch size 1, requested type "simple"
  7426                           ; Number of cases is 5, Range of values is 0 to 4
  7427                           ; switch strategies available:
  7428                           ; Name         Instructions Cycles
  7429                           ; simple_byte           16     9 (average)
  7430                           ; direct_byte           23     8 (fixed)
  7431                           ; jumptable            260     6 (fixed)
  7432                           ;	Chosen strategy is simple_byte
  7433     0D2F  3A00               	xorlw	0	; case 0
  7434     0D30  1903               	skipnz
  7435     0D31  2D2A               	goto	l303
  7436     0D32  3A01               	xorlw	1	; case 1
  7437     0D33  1903               	skipnz
  7438     0D34  2D26               	goto	l3774
  7439     0D35  3A03               	xorlw	3	; case 2
  7440     0D36  1903               	skipnz
  7441     0D37  2D2A               	goto	l3778
  7442     0D38  3A01               	xorlw	1	; case 3
  7443     0D39  1903               	skipnz
  7444     0D3A  2D2A               	goto	l3778
  7445     0D3B  3A07               	xorlw	7	; case 4
  7446     0D3C  1903               	skipnz
  7447     0D3D  2D2A               	goto	l3778
  7448     0D3E  2DA7               	goto	l329
  7449     0D3F                     l310:	
  7450                           ;washing_machine_function_def.c: 227:                 case 3:
  7451                           
  7452     0D3F                     l3786:
  7453                           
  7454                           ;washing_machine_function_def.c: 229:                     min = 0;
  7455     0D3F  01ED               	clrf	_min
  7456     0D40                     l3788:
  7457                           
  7458                           ;washing_machine_function_def.c: 230:                     sec = 6;
  7459     0D40  3006               	movlw	6
  7460     0D41  00EE               	movwf	_sec
  7461                           
  7462                           ;washing_machine_function_def.c: 231:                     break;
  7463     0D42  2DA7               	goto	l329
  7464     0D43                     l3792:
  7465     0D43  086B               	movf	_level,w
  7466                           
  7467                           ; Switch size 1, requested type "simple"
  7468                           ; Number of cases is 5, Range of values is 0 to 4
  7469                           ; switch strategies available:
  7470                           ; Name         Instructions Cycles
  7471                           ; simple_byte           16     9 (average)
  7472                           ; direct_byte           23     8 (fixed)
  7473                           ; jumptable            260     6 (fixed)
  7474                           ;	Chosen strategy is simple_byte
  7475     0D44  3A00               	xorlw	0	; case 0
  7476     0D45  1903               	skipnz
  7477     0D46  2D3F               	goto	l3786
  7478     0D47  3A01               	xorlw	1	; case 1
  7479     0D48  1903               	skipnz
  7480     0D49  2D3F               	goto	l310
  7481     0D4A  3A03               	xorlw	3	; case 2
  7482     0D4B  1903               	skipnz
  7483     0D4C  2D3F               	goto	l3786
  7484     0D4D  3A01               	xorlw	1	; case 3
  7485     0D4E  1903               	skipnz
  7486     0D4F  2D3F               	goto	l3786
  7487     0D50  3A07               	xorlw	7	; case 4
  7488     0D51  1903               	skipnz
  7489     0D52  2D3F               	goto	l3786
  7490     0D53  2DA7               	goto	l329
  7491     0D54                     l3794:
  7492                           
  7493                           ;washing_machine_function_def.c: 237:                     min=0;
  7494     0D54  01ED               	clrf	_min
  7495     0D55                     l3796:
  7496                           
  7497                           ;washing_machine_function_def.c: 238:                     sec=16;
  7498     0D55  3010               	movlw	16
  7499     0D56  00EE               	movwf	_sec
  7500                           
  7501                           ;washing_machine_function_def.c: 239:                     break;
  7502     0D57  2DA7               	goto	l329
  7503     0D58                     l3798:
  7504                           
  7505                           ;washing_machine_function_def.c: 242:                     min=0;
  7506     0D58  01ED               	clrf	_min
  7507     0D59                     l3800:
  7508                           
  7509                           ;washing_machine_function_def.c: 243:                     sec=21;
  7510     0D59  3015               	movlw	21
  7511     0D5A  00EE               	movwf	_sec
  7512                           
  7513                           ;washing_machine_function_def.c: 244:                     break;
  7514     0D5B  2DA7               	goto	l329
  7515     0D5C                     l3808:
  7516     0D5C  086B               	movf	_level,w
  7517                           
  7518                           ; Switch size 1, requested type "simple"
  7519                           ; Number of cases is 5, Range of values is 0 to 4
  7520                           ; switch strategies available:
  7521                           ; Name         Instructions Cycles
  7522                           ; simple_byte           16     9 (average)
  7523                           ; direct_byte           23     8 (fixed)
  7524                           ; jumptable            260     6 (fixed)
  7525                           ;	Chosen strategy is simple_byte
  7526     0D5D  3A00               	xorlw	0	; case 0
  7527     0D5E  1903               	skipnz
  7528     0D5F  2D58               	goto	l3798
  7529     0D60  3A01               	xorlw	1	; case 1
  7530     0D61  1903               	skipnz
  7531     0D62  2D54               	goto	l3794
  7532     0D63  3A03               	xorlw	3	; case 2
  7533     0D64  1903               	skipnz
  7534     0D65  2D58               	goto	l3798
  7535     0D66  3A01               	xorlw	1	; case 3
  7536     0D67  1903               	skipnz
  7537     0D68  2D58               	goto	l3798
  7538     0D69  3A07               	xorlw	7	; case 4
  7539     0D6A  1903               	skipnz
  7540     0D6B  2D58               	goto	l3798
  7541     0D6C  2DA7               	goto	l329
  7542     0D6D                     l326:	
  7543                           ;washing_machine_function_def.c: 257:                 case 3:
  7544                           
  7545     0D6D  2C81               	goto	l3708
  7546     0D6E                     l3816:
  7547     0D6E  086B               	movf	_level,w
  7548                           
  7549                           ; Switch size 1, requested type "simple"
  7550                           ; Number of cases is 5, Range of values is 0 to 4
  7551                           ; switch strategies available:
  7552                           ; Name         Instructions Cycles
  7553                           ; simple_byte           16     9 (average)
  7554                           ; direct_byte           23     8 (fixed)
  7555                           ; jumptable            260     6 (fixed)
  7556                           ;	Chosen strategy is simple_byte
  7557     0D6F  3A00               	xorlw	0	; case 0
  7558     0D70  1903               	skipnz
  7559     0D71  2C81               	goto	l3708
  7560     0D72  3A01               	xorlw	1	; case 1
  7561     0D73  1903               	skipnz
  7562     0D74  2D6D               	goto	l326
  7563     0D75  3A03               	xorlw	3	; case 2
  7564     0D76  1903               	skipnz
  7565     0D77  2C81               	goto	l3708
  7566     0D78  3A01               	xorlw	1	; case 3
  7567     0D79  1903               	skipnz
  7568     0D7A  2C81               	goto	l3708
  7569     0D7B  3A07               	xorlw	7	; case 4
  7570     0D7C  1903               	skipnz
  7571     0D7D  2C81               	goto	l3708
  7572     0D7E  2DA7               	goto	l329
  7573     0D7F                     l3820:
  7574     0D7F  1283               	bcf	3,5	;RP0=0, select bank0
  7575     0D80  1303               	bcf	3,6	;RP1=0, select bank0
  7576     0D81  086C               	movf	_program_no,w
  7577                           
  7578                           ; Switch size 1, requested type "simple"
  7579                           ; Number of cases is 12, Range of values is 0 to 11
  7580                           ; switch strategies available:
  7581                           ; Name         Instructions Cycles
  7582                           ; simple_byte           37    19 (average)
  7583                           ; direct_byte           44     8 (fixed)
  7584                           ; jumptable            260     6 (fixed)
  7585                           ;	Chosen strategy is simple_byte
  7586     0D82  3A00               	xorlw	0	; case 0
  7587     0D83  1903               	skipnz
  7588     0D84  2C6C               	goto	l3702
  7589     0D85  3A01               	xorlw	1	; case 1
  7590     0D86  1903               	skipnz
  7591     0D87  2C89               	goto	l3718
  7592     0D88  3A03               	xorlw	3	; case 2
  7593     0D89  1903               	skipnz
  7594     0D8A  2CA2               	goto	l3730
  7595     0D8B  3A01               	xorlw	1	; case 3
  7596     0D8C  1903               	skipnz
  7597     0D8D  2CB8               	goto	l3734
  7598     0D8E  3A07               	xorlw	7	; case 4
  7599     0D8F  1903               	skipnz
  7600     0D90  2CCE               	goto	l3738
  7601     0D91  3A01               	xorlw	1	; case 5
  7602     0D92  1903               	skipnz
  7603     0D93  2CE3               	goto	l3750
  7604     0D94  3A03               	xorlw	3	; case 6
  7605     0D95  1903               	skipnz
  7606     0D96  2CF8               	goto	l3758
  7607     0D97  3A01               	xorlw	1	; case 7
  7608     0D98  1903               	skipnz
  7609     0D99  2D15               	goto	l3772
  7610     0D9A  3A0F               	xorlw	15	; case 8
  7611     0D9B  1903               	skipnz
  7612     0D9C  2D2E               	goto	l3784
  7613     0D9D  3A01               	xorlw	1	; case 9
  7614     0D9E  1903               	skipnz
  7615     0D9F  2D43               	goto	l3792
  7616     0DA0  3A03               	xorlw	3	; case 10
  7617     0DA1  1903               	skipnz
  7618     0DA2  2D5C               	goto	l3808
  7619     0DA3  3A01               	xorlw	1	; case 11
  7620     0DA4  1903               	skipnz
  7621     0DA5  2D6E               	goto	l3816
  7622     0DA6  2DA7               	goto	l329
  7623     0DA7                     l329:
  7624     0DA7  0008               	return
  7625     0DA8                     __end_of_set_time:
  7626                           
  7627                           	psect	text17
  7628     082B                     __ptext17:	
  7629 ;; *************** function _read_digital_keypad *****************
  7630 ;; Defined at:
  7631 ;;		line 18 in file "digital_keypad.c"
  7632 ;; Parameters:    Size  Location     Type
  7633 ;;  mode            1    wreg     unsigned char 
  7634 ;; Auto vars:     Size  Location     Type
  7635 ;;  mode            1    0[COMMON] unsigned char 
  7636 ;;  key             1    2[COMMON] unsigned char 
  7637 ;; Return value:  Size  Location     Type
  7638 ;;                  1    wreg      unsigned char 
  7639 ;; Registers used:
  7640 ;;		wreg, status,2, status,0, btemp+1
  7641 ;; Tracked objects:
  7642 ;;		On entry : 0/0
  7643 ;;		On exit  : 0/0
  7644 ;;		Unchanged: 0/0
  7645 ;; Data sizes:     COMMON   BANK0   BANK1   BANK3   BANK2
  7646 ;;      Params:         0       0       0       0       0
  7647 ;;      Locals:         1       0       0       0       0
  7648 ;;      Temps:          0       0       0       0       0
  7649 ;;      Totals:         1       0       0       0       0
  7650 ;;Total ram usage:        1 bytes
  7651 ;; Hardware stack levels used: 1
  7652 ;; Hardware stack levels required when called: 1
  7653 ;; This function calls:
  7654 ;;		Nothing
  7655 ;; This function is called by:
  7656 ;;		_main
  7657 ;; This function uses a non-reentrant model
  7658 ;;
  7659                           
  7660     082B                     _read_digital_keypad:	
  7661                           ;psect for function _read_digital_keypad
  7662                           
  7663     082B                     l3600:	
  7664                           ;incstack = 0
  7665                           ; Regs used in _read_digital_keypad: [wreg+status,2+status,0+btemp+1]
  7666                           
  7667                           
  7668                           ;digital_keypad.c: 18: unsigned char read_digital_keypad(unsigned char mode);digital_key
      +                          pad.c: 19: {;digital_keypad.c: 20:     static char once = 1;;digital_keypad.c: 21:     s
      +                          tatic int longpressed=1;;digital_keypad.c: 22:     unsigned char key= PORTB &0x3F;
  7669     082B  1283               	bcf	3,5	;RP0=0, select bank0
  7670     082C  1303               	bcf	3,6	;RP1=0, select bank0
  7671     082D  0806               	movf	6,w	;volatile
  7672     082E  00F2               	movwf	read_digital_keypad@key
  7673     082F                     l3602:
  7674     082F  303F               	movlw	63
  7675     0830  05F2               	andwf	read_digital_keypad@key,f
  7676     0831                     l3604:
  7677                           
  7678                           ;digital_keypad.c: 23:     static unsigned char pre_key;;digital_keypad.c: 25:     if(ke
      +                          y!=0x3F && once){
  7679     0831  303F               	movlw	63
  7680     0832  0672               	xorwf	read_digital_keypad@key,w
  7681     0833  1903               	btfsc	3,2
  7682     0834  2836               	goto	u4911
  7683     0835  2837               	goto	u4910
  7684     0836                     u4911:
  7685     0836  2844               	goto	l3614
  7686     0837                     u4910:
  7687     0837                     l3606:
  7688     0837  087B               	movf	read_digital_keypad@once,w
  7689     0838  1903               	btfsc	3,2
  7690     0839  283B               	goto	u4921
  7691     083A  283C               	goto	u4920
  7692     083B                     u4921:
  7693     083B  2844               	goto	l3614
  7694     083C                     u4920:
  7695     083C                     l3608:
  7696                           
  7697                           ;digital_keypad.c: 26:         once =0;
  7698     083C  01FB               	clrf	read_digital_keypad@once
  7699     083D                     l3610:
  7700                           
  7701                           ;digital_keypad.c: 27:         pre_key = key;
  7702     083D  0872               	movf	read_digital_keypad@key,w
  7703     083E  1683               	bsf	3,5	;RP0=1, select bank1
  7704     083F  1303               	bcf	3,6	;RP1=0, select bank1
  7705     0840  00CC               	movwf	read_digital_keypad@pre_key^(0+128)
  7706     0841                     l3612:
  7707                           
  7708                           ;digital_keypad.c: 28:         longpressed = 0;
  7709     0841  01C4               	clrf	read_digital_keypad@longpressed^(0+128)
  7710     0842  01C5               	clrf	(read_digital_keypad@longpressed+1)^(0+128)
  7711                           
  7712                           ;digital_keypad.c: 31:     }
  7713     0843  289D               	goto	l3642
  7714     0844                     l3614:
  7715     0844  303F               	movlw	63
  7716     0845  0672               	xorwf	read_digital_keypad@key,w
  7717     0846  1D03               	btfss	3,2
  7718     0847  2849               	goto	u4931
  7719     0848  284A               	goto	u4930
  7720     0849                     u4931:
  7721     0849  2864               	goto	l3626
  7722     084A                     u4930:
  7723     084A                     l3616:
  7724     084A  087B               	movf	read_digital_keypad@once,w
  7725     084B  1D03               	btfss	3,2
  7726     084C  284E               	goto	u4941
  7727     084D  284F               	goto	u4940
  7728     084E                     u4941:
  7729     084E  2864               	goto	l3626
  7730     084F                     u4940:
  7731     084F                     l3618:
  7732                           
  7733                           ;digital_keypad.c: 33:         once =1;
  7734     084F  3001               	movlw	1
  7735     0850  00FB               	movwf	read_digital_keypad@once
  7736     0851                     l3620:
  7737                           
  7738                           ;digital_keypad.c: 34:         if(longpressed<15)
  7739     0851  1683               	bsf	3,5	;RP0=1, select bank1
  7740     0852  1303               	bcf	3,6	;RP1=0, select bank1
  7741     0853  0845               	movf	(read_digital_keypad@longpressed+1)^(0+128),w
  7742     0854  3A80               	xorlw	128
  7743     0855  00FF               	movwf	btemp+1
  7744     0856  3080               	movlw	128
  7745     0857  027F               	subwf	btemp+1,w
  7746     0858  1D03               	skipz
  7747     0859  285C               	goto	u4955
  7748     085A  300F               	movlw	15
  7749     085B  0244               	subwf	read_digital_keypad@longpressed^(0+128),w
  7750     085C                     u4955:
  7751     085C  1803               	skipnc
  7752     085D  285F               	goto	u4951
  7753     085E  2860               	goto	u4950
  7754     085F                     u4951:
  7755     085F  289D               	goto	l3642
  7756     0860                     u4950:
  7757     0860                     l3622:
  7758                           
  7759                           ;digital_keypad.c: 35:             return pre_key;
  7760     0860  1683               	bsf	3,5	;RP0=1, select bank1
  7761     0861  1303               	bcf	3,6	;RP1=0, select bank1
  7762     0862  084C               	movf	read_digital_keypad@pre_key^(0+128),w
  7763     0863  289E               	goto	l52
  7764     0864                     l3626:
  7765     0864  087B               	movf	read_digital_keypad@once,w
  7766     0865  1D03               	btfss	3,2
  7767     0866  2868               	goto	u4961
  7768     0867  2869               	goto	u4960
  7769     0868                     u4961:
  7770     0868  2881               	goto	l3632
  7771     0869                     u4960:
  7772     0869                     l3628:
  7773     0869  1683               	bsf	3,5	;RP0=1, select bank1
  7774     086A  1303               	bcf	3,6	;RP1=0, select bank1
  7775     086B  0845               	movf	(read_digital_keypad@longpressed+1)^(0+128),w
  7776     086C  3A80               	xorlw	128
  7777     086D  00FF               	movwf	btemp+1
  7778     086E  3080               	movlw	128
  7779     086F  027F               	subwf	btemp+1,w
  7780     0870  1D03               	skipz
  7781     0871  2874               	goto	u4975
  7782     0872  3010               	movlw	16
  7783     0873  0244               	subwf	read_digital_keypad@longpressed^(0+128),w
  7784     0874                     u4975:
  7785     0874  1803               	skipnc
  7786     0875  2877               	goto	u4971
  7787     0876  2878               	goto	u4970
  7788     0877                     u4971:
  7789     0877  2881               	goto	l3632
  7790     0878                     u4970:
  7791     0878                     l3630:
  7792                           
  7793                           ;digital_keypad.c: 38:         longpressed++;
  7794     0878  3001               	movlw	1
  7795     0879  1683               	bsf	3,5	;RP0=1, select bank1
  7796     087A  1303               	bcf	3,6	;RP1=0, select bank1
  7797     087B  07C4               	addwf	read_digital_keypad@longpressed^(0+128),f
  7798     087C  1803               	skipnc
  7799     087D  0AC5               	incf	(read_digital_keypad@longpressed+1)^(0+128),f
  7800     087E  3000               	movlw	0
  7801     087F  07C5               	addwf	(read_digital_keypad@longpressed+1)^(0+128),f
  7802     0880  289D               	goto	l3642
  7803     0881                     l3632:
  7804     0881  087B               	movf	read_digital_keypad@once,w
  7805     0882  1D03               	btfss	3,2
  7806     0883  2885               	goto	u4981
  7807     0884  2886               	goto	u4980
  7808     0885                     u4981:
  7809     0885  289D               	goto	l53
  7810     0886                     u4980:
  7811     0886                     l3634:
  7812     0886  3010               	movlw	16
  7813     0887  1683               	bsf	3,5	;RP0=1, select bank1
  7814     0888  1303               	bcf	3,6	;RP1=0, select bank1
  7815     0889  0644               	xorwf	read_digital_keypad@longpressed^(0+128),w
  7816     088A  0445               	iorwf	(read_digital_keypad@longpressed+1)^(0+128),w
  7817     088B  1D03               	btfss	3,2
  7818     088C  288E               	goto	u4991
  7819     088D  288F               	goto	u4990
  7820     088E                     u4991:
  7821     088E  289D               	goto	l53
  7822     088F                     u4990:
  7823     088F                     l3636:
  7824     088F  3037               	movlw	55
  7825     0890  0672               	xorwf	read_digital_keypad@key,w
  7826     0891  1D03               	btfss	3,2
  7827     0892  2894               	goto	u5001
  7828     0893  2895               	goto	u5000
  7829     0894                     u5001:
  7830     0894  289D               	goto	l53
  7831     0895                     u5000:
  7832     0895                     l3638:
  7833                           
  7834                           ;digital_keypad.c: 40:         longpressed++;
  7835     0895  3001               	movlw	1
  7836     0896  07C4               	addwf	read_digital_keypad@longpressed^(0+128),f
  7837     0897  1803               	skipnc
  7838     0898  0AC5               	incf	(read_digital_keypad@longpressed+1)^(0+128),f
  7839     0899  3000               	movlw	0
  7840     089A  07C5               	addwf	(read_digital_keypad@longpressed+1)^(0+128),f
  7841                           
  7842                           ;digital_keypad.c: 41:         return 0x99;
  7843     089B  3099               	movlw	153
  7844     089C  289E               	goto	l52
  7845     089D                     l53:
  7846     089D                     l3642:
  7847                           
  7848                           ;digital_keypad.c: 44:     return 0x3F;
  7849     089D  303F               	movlw	63
  7850     089E                     l52:
  7851     089E  0008               	return
  7852     089F                     __end_of_read_digital_keypad:
  7853                           
  7854                           	psect	text18
  7855     16EB                     __ptext18:	
  7856 ;; *************** function _power_ON_screen *****************
  7857 ;; Defined at:
  7858 ;;		line 18 in file "washing_machine_function_def.c"
  7859 ;; Parameters:    Size  Location     Type
  7860 ;;		None
  7861 ;; Auto vars:     Size  Location     Type
  7862 ;;  i               2   10[BANK0 ] unsigned int 
  7863 ;;  i               2    8[BANK0 ] unsigned int 
  7864 ;; Return value:  Size  Location     Type
  7865 ;;                  1    wreg      void 
  7866 ;; Registers used:
  7867 ;;		wreg, fsr0l, fsr0h, status,2, status,0, btemp+1, pclath, cstack
  7868 ;; Tracked objects:
  7869 ;;		On entry : 0/0
  7870 ;;		On exit  : 0/0
  7871 ;;		Unchanged: 0/0
  7872 ;; Data sizes:     COMMON   BANK0   BANK1   BANK3   BANK2
  7873 ;;      Params:         0       0       0       0       0
  7874 ;;      Locals:         0       4       0       0       0
  7875 ;;      Temps:          0       3       0       0       0
  7876 ;;      Totals:         0       7       0       0       0
  7877 ;;Total ram usage:        7 bytes
  7878 ;; Hardware stack levels used: 1
  7879 ;; Hardware stack levels required when called: 3
  7880 ;; This function calls:
  7881 ;;		_clcd_print
  7882 ;;		_clcd_putch
  7883 ;; This function is called by:
  7884 ;;		_main
  7885 ;; This function uses a non-reentrant model
  7886 ;;
  7887                           
  7888     16EB                     _power_ON_screen:	
  7889                           ;psect for function _power_ON_screen
  7890                           
  7891     16EB                     l3662:	
  7892                           ;incstack = 0
  7893                           ; Regs used in _power_ON_screen: [wreg-fsr0h+status,2+status,0+btemp+1+pclath+cstack]
  7894                           
  7895                           
  7896                           ;washing_machine_function_def.c: 19:     for(unsigned int i=0;i<16;i++){
  7897     16EB  1283               	bcf	3,5	;RP0=0, select bank0
  7898     16EC  1303               	bcf	3,6	;RP1=0, select bank0
  7899     16ED  01A8               	clrf	power_ON_screen@i
  7900     16EE  01A9               	clrf	power_ON_screen@i+1
  7901     16EF                     l3668:
  7902                           
  7903                           ;washing_machine_function_def.c: 20:         clcd_putch(0xFF,(0x80 + i));
  7904     16EF  0828               	movf	power_ON_screen@i,w
  7905     16F0  3E80               	addlw	128
  7906     16F1  00F8               	movwf	clcd_putch@addr
  7907     16F2  30FF               	movlw	255
  7908     16F3  160A  118A  2470  160A  118A  	fcall	_clcd_putch
  7909     16F8                     l3670:
  7910                           
  7911                           ;washing_machine_function_def.c: 21:         _delay((unsigned long)((100)*(20000000/4000
      +                          .0)));
  7912     16F8  3003               	movlw	3
  7913     16F9  1283               	bcf	3,5	;RP0=0, select bank0
  7914     16FA  1303               	bcf	3,6	;RP1=0, select bank0
  7915     16FB  00A7               	movwf	??_power_ON_screen+2
  7916     16FC  308A               	movlw	138
  7917     16FD  00A6               	movwf	??_power_ON_screen+1
  7918     16FE  3055               	movlw	85
  7919     16FF  00A5               	movwf	??_power_ON_screen
  7920     1700                     u5667:
  7921     1700  0BA5               	decfsz	??_power_ON_screen,f
  7922     1701  2F00               	goto	u5667
  7923     1702  0BA6               	decfsz	??_power_ON_screen+1,f
  7924     1703  2F00               	goto	u5667
  7925     1704  0BA7               	decfsz	??_power_ON_screen+2,f
  7926     1705  2F00               	goto	u5667
  7927     1706                     l3672:
  7928                           
  7929                           ;washing_machine_function_def.c: 22:     }
  7930     1706  3001               	movlw	1
  7931     1707  1283               	bcf	3,5	;RP0=0, select bank0
  7932     1708  1303               	bcf	3,6	;RP1=0, select bank0
  7933     1709  07A8               	addwf	power_ON_screen@i,f
  7934     170A  1803               	skipnc
  7935     170B  0AA9               	incf	power_ON_screen@i+1,f
  7936     170C  3000               	movlw	0
  7937     170D  07A9               	addwf	power_ON_screen@i+1,f
  7938     170E                     l3674:
  7939     170E  3000               	movlw	0
  7940     170F  0229               	subwf	power_ON_screen@i+1,w
  7941     1710  3010               	movlw	16
  7942     1711  1903               	skipnz
  7943     1712  0228               	subwf	power_ON_screen@i,w
  7944     1713  1C03               	skipc
  7945     1714  2F16               	goto	u5011
  7946     1715  2F17               	goto	u5010
  7947     1716                     u5011:
  7948     1716  2EEF               	goto	l3668
  7949     1717                     u5010:
  7950     1717                     l3676:
  7951                           
  7952                           ;washing_machine_function_def.c: 24:     clcd_print("Powering ON",(0xC0 + 3));
  7953     1717  3086               	movlw	low (STR_24| (0+32768))
  7954     1718  00A0               	movwf	clcd_print@str
  7955     1719  3090               	movlw	high (STR_24| (0+32768))
  7956     171A  00A1               	movwf	clcd_print@str+1
  7957     171B  30C3               	movlw	195
  7958     171C  00A2               	movwf	clcd_print@addr
  7959     171D  160A  118A  24E3  160A  118A  	fcall	_clcd_print
  7960                           
  7961                           ;washing_machine_function_def.c: 25:     clcd_print("Washing Machine",(0x90 + 1));
  7962     1722  3033               	movlw	low (STR_3| (0+32768))
  7963     1723  1283               	bcf	3,5	;RP0=0, select bank0
  7964     1724  1303               	bcf	3,6	;RP1=0, select bank0
  7965     1725  00A0               	movwf	clcd_print@str
  7966     1726  3090               	movlw	high (STR_3| (0+32768))
  7967     1727  00A1               	movwf	clcd_print@str+1
  7968     1728  3091               	movlw	145
  7969     1729  00A2               	movwf	clcd_print@addr
  7970     172A  160A  118A  24E3  160A  118A  	fcall	_clcd_print
  7971     172F                     l3678:
  7972                           
  7973                           ;washing_machine_function_def.c: 27:     for(unsigned int i=0;i<16;i++){
  7974     172F  1283               	bcf	3,5	;RP0=0, select bank0
  7975     1730  1303               	bcf	3,6	;RP1=0, select bank0
  7976     1731  01AA               	clrf	power_ON_screen@i_183
  7977     1732  01AB               	clrf	power_ON_screen@i_183+1
  7978     1733                     l3684:
  7979                           
  7980                           ;washing_machine_function_def.c: 28:         clcd_putch(0xFF,(0xD0 + i));
  7981     1733  082A               	movf	power_ON_screen@i_183,w
  7982     1734  3ED0               	addlw	208
  7983     1735  00F8               	movwf	clcd_putch@addr
  7984     1736  30FF               	movlw	255
  7985     1737  160A  118A  2470  160A  118A  	fcall	_clcd_putch
  7986     173C                     l3686:
  7987                           
  7988                           ;washing_machine_function_def.c: 29:         _delay((unsigned long)((100)*(20000000/4000
      +                          .0)));
  7989     173C  3003               	movlw	3
  7990     173D  1283               	bcf	3,5	;RP0=0, select bank0
  7991     173E  1303               	bcf	3,6	;RP1=0, select bank0
  7992     173F  00A7               	movwf	??_power_ON_screen+2
  7993     1740  308A               	movlw	138
  7994     1741  00A6               	movwf	??_power_ON_screen+1
  7995     1742  3055               	movlw	85
  7996     1743  00A5               	movwf	??_power_ON_screen
  7997     1744                     u5677:
  7998     1744  0BA5               	decfsz	??_power_ON_screen,f
  7999     1745  2F44               	goto	u5677
  8000     1746  0BA6               	decfsz	??_power_ON_screen+1,f
  8001     1747  2F44               	goto	u5677
  8002     1748  0BA7               	decfsz	??_power_ON_screen+2,f
  8003     1749  2F44               	goto	u5677
  8004     174A                     l3688:
  8005                           
  8006                           ;washing_machine_function_def.c: 30:     }
  8007     174A  3001               	movlw	1
  8008     174B  1283               	bcf	3,5	;RP0=0, select bank0
  8009     174C  1303               	bcf	3,6	;RP1=0, select bank0
  8010     174D  07AA               	addwf	power_ON_screen@i_183,f
  8011     174E  1803               	skipnc
  8012     174F  0AAB               	incf	power_ON_screen@i_183+1,f
  8013     1750  3000               	movlw	0
  8014     1751  07AB               	addwf	power_ON_screen@i_183+1,f
  8015     1752                     l3690:
  8016     1752  3000               	movlw	0
  8017     1753  022B               	subwf	power_ON_screen@i_183+1,w
  8018     1754  3010               	movlw	16
  8019     1755  1903               	skipnz
  8020     1756  022A               	subwf	power_ON_screen@i_183,w
  8021     1757  1C03               	skipc
  8022     1758  2F5A               	goto	u5021
  8023     1759  2F5B               	goto	u5020
  8024     175A                     u5021:
  8025     175A  2F33               	goto	l3684
  8026     175B                     u5020:
  8027     175B                     l210:
  8028     175B  0008               	return
  8029     175C                     __end_of_power_ON_screen:
  8030                           
  8031                           	psect	text19
  8032     1470                     __ptext19:	
  8033 ;; *************** function _clcd_putch *****************
  8034 ;; Defined at:
  8035 ;;		line 57 in file "clcd.c"
  8036 ;; Parameters:    Size  Location     Type
  8037 ;;  data            1    wreg     const unsigned char 
  8038 ;;  addr            1    8[COMMON] unsigned char 
  8039 ;; Auto vars:     Size  Location     Type
  8040 ;;  data            1    4[BANK0 ] const unsigned char 
  8041 ;; Return value:  Size  Location     Type
  8042 ;;                  1    wreg      void 
  8043 ;; Registers used:
  8044 ;;		wreg, status,2, status,0, pclath, cstack
  8045 ;; Tracked objects:
  8046 ;;		On entry : 0/0
  8047 ;;		On exit  : 0/0
  8048 ;;		Unchanged: 0/0
  8049 ;; Data sizes:     COMMON   BANK0   BANK1   BANK3   BANK2
  8050 ;;      Params:         1       0       0       0       0
  8051 ;;      Locals:         0       1       0       0       0
  8052 ;;      Temps:          0       0       0       0       0
  8053 ;;      Totals:         1       1       0       0       0
  8054 ;;Total ram usage:        2 bytes
  8055 ;; Hardware stack levels used: 1
  8056 ;; Hardware stack levels required when called: 2
  8057 ;; This function calls:
  8058 ;;		_clcd_write
  8059 ;; This function is called by:
  8060 ;;		_power_ON_screen
  8061 ;;		_washing_program_
  8062 ;;		_water_level_screen
  8063 ;;		_start
  8064 ;; This function uses a non-reentrant model
  8065 ;;
  8066                           
  8067     1470                     _clcd_putch:	
  8068                           ;psect for function _clcd_putch
  8069                           
  8070                           
  8071                           ;incstack = 0
  8072                           ; Regs used in _clcd_putch: [wreg+status,2+status,0+pclath+cstack]
  8073                           ;clcd_putch@data stored from wreg
  8074     1470  1283               	bcf	3,5	;RP0=0, select bank0
  8075     1471  1303               	bcf	3,6	;RP1=0, select bank0
  8076     1472  00A4               	movwf	clcd_putch@data
  8077     1473                     l3232:
  8078                           
  8079                           ;clcd.c: 57: void clcd_putch(const char data, unsigned char addr);clcd.c: 58: {;clcd.c: 
      +                          59:     clcd_write(addr, 0);
  8080     1473  01F2               	clrf	clcd_write@mode
  8081     1474  0878               	movf	clcd_putch@addr,w
  8082     1475  160A  118A  249F  160A  118A  	fcall	_clcd_write
  8083                           
  8084                           ;clcd.c: 60:     clcd_write(data, 1);
  8085     147A  01F2               	clrf	clcd_write@mode
  8086     147B  0AF2               	incf	clcd_write@mode,f
  8087     147C  1283               	bcf	3,5	;RP0=0, select bank0
  8088     147D  1303               	bcf	3,6	;RP1=0, select bank0
  8089     147E  0824               	movf	clcd_putch@data,w
  8090     147F  160A  118A  249F  160A  118A  	fcall	_clcd_write
  8091     1484                     l26:
  8092     1484  0008               	return
  8093     1485                     __end_of_clcd_putch:
  8094                           
  8095                           	psect	text20
  8096     14E3                     __ptext20:	
  8097 ;; *************** function _clcd_print *****************
  8098 ;; Defined at:
  8099 ;;		line 63 in file "clcd.c"
  8100 ;; Parameters:    Size  Location     Type
  8101 ;;  str             2    0[BANK0 ] PTR const unsigned char 
  8102 ;;		 -> STR_48(11), STR_47(11), STR_46(5), STR_45(11), 
  8103 ;;		 -> STR_44(18), STR_43(13), STR_42(14), STR_41(17), 
  8104 ;;		 -> STR_40(5), STR_39(6), STR_38(6), STR_37(6), 
  8105 ;;		 -> STR_36(6), STR_35(6), STR_34(5), STR_33(11), 
  8106 ;;		 -> STR_32(11), STR_31(5), STR_30(11), STR_29(6), 
  8107 ;;		 -> STR_28(6), STR_27(12), STR_26(16), STR_25(16), 
  8108 ;;		 -> STR_24(12), STR_23(4), STR_22(5), STR_21(7), 
  8109 ;;		 -> STR_20(4), STR_19(5), STR_18(11), STR_17(10), 
  8110 ;;		 -> STR_16(9), STR_15(10), STR_14(11), STR_13(8), 
  8111 ;;		 -> STR_12(12), STR_11(11), STR_10(7), STR_9(10), 
  8112 ;;		 -> STR_8(6), STR_7(6), STR_6(10), STR_5(11), 
  8113 ;;		 -> STR_4(13), STR_3(16), STR_2(9), STR_1(15), 
  8114 ;;  addr            1    2[BANK0 ] unsigned char 
  8115 ;; Auto vars:     Size  Location     Type
  8116 ;;		None
  8117 ;; Return value:  Size  Location     Type
  8118 ;;                  1    wreg      void 
  8119 ;; Registers used:
  8120 ;;		wreg, fsr0l, fsr0h, status,2, status,0, btemp+1, pclath, cstack
  8121 ;; Tracked objects:
  8122 ;;		On entry : 0/0
  8123 ;;		On exit  : 0/0
  8124 ;;		Unchanged: 0/0
  8125 ;; Data sizes:     COMMON   BANK0   BANK1   BANK3   BANK2
  8126 ;;      Params:         0       3       0       0       0
  8127 ;;      Locals:         0       0       0       0       0
  8128 ;;      Temps:          0       0       0       0       0
  8129 ;;      Totals:         0       3       0       0       0
  8130 ;;Total ram usage:        3 bytes
  8131 ;; Hardware stack levels used: 1
  8132 ;; Hardware stack levels required when called: 2
  8133 ;; This function calls:
  8134 ;;		_clcd_write
  8135 ;; This function is called by:
  8136 ;;		_main
  8137 ;;		_power_ON_screen
  8138 ;;		_washing_program_
  8139 ;;		_water_level_screen
  8140 ;;		_start
  8141 ;;		_door_status_check
  8142 ;; This function uses a non-reentrant model
  8143 ;;
  8144                           
  8145     14E3                     _clcd_print:	
  8146                           ;psect for function _clcd_print
  8147                           
  8148     14E3                     l3000:	
  8149                           ;incstack = 0
  8150                           ; Regs used in _clcd_print: [wreg-fsr0h+status,2+status,0+btemp+1+pclath+cstack]
  8151                           
  8152                           
  8153                           ;clcd.c: 63: void clcd_print(const char *str, unsigned char addr);clcd.c: 64: {;clcd.c: 
      +                          65:     clcd_write(addr, 0);
  8154     14E3  01F2               	clrf	clcd_write@mode
  8155     14E4  1283               	bcf	3,5	;RP0=0, select bank0
  8156     14E5  1303               	bcf	3,6	;RP1=0, select bank0
  8157     14E6  0822               	movf	clcd_print@addr,w
  8158     14E7  160A  118A  249F  160A  118A  	fcall	_clcd_write
  8159                           
  8160                           ;clcd.c: 67:     while (*str != '\0')
  8161     14EC  2D05               	goto	l3006
  8162     14ED                     l3002:
  8163                           
  8164                           ;clcd.c: 68:     {;clcd.c: 69:         clcd_write(*str, 1);
  8165     14ED  01F2               	clrf	clcd_write@mode
  8166     14EE  0AF2               	incf	clcd_write@mode,f
  8167     14EF  0821               	movf	clcd_print@str+1,w
  8168     14F0  00FF               	movwf	btemp+1
  8169     14F1  0820               	movf	clcd_print@str,w
  8170     14F2  0084               	movwf	4
  8171     14F3  160A  118A  216B  160A  118A  	fcall	stringtab
  8172     14F8  160A  118A  249F  160A  118A  	fcall	_clcd_write
  8173     14FD                     l3004:
  8174                           
  8175                           ;clcd.c: 70:         str++;
  8176     14FD  3001               	movlw	1
  8177     14FE  1283               	bcf	3,5	;RP0=0, select bank0
  8178     14FF  1303               	bcf	3,6	;RP1=0, select bank0
  8179     1500  07A0               	addwf	clcd_print@str,f
  8180     1501  1803               	skipnc
  8181     1502  0AA1               	incf	clcd_print@str+1,f
  8182     1503  3000               	movlw	0
  8183     1504  07A1               	addwf	clcd_print@str+1,f
  8184     1505                     l3006:
  8185                           
  8186                           ;clcd.c: 67:     while (*str != '\0')
  8187     1505  1283               	bcf	3,5	;RP0=0, select bank0
  8188     1506  1303               	bcf	3,6	;RP1=0, select bank0
  8189     1507  0821               	movf	clcd_print@str+1,w
  8190     1508  00FF               	movwf	btemp+1
  8191     1509  0820               	movf	clcd_print@str,w
  8192     150A  0084               	movwf	4
  8193     150B  160A  118A  216B  160A  118A  	fcall	stringtab
  8194     1510  3A00               	xorlw	0
  8195     1511  1D03               	skipz
  8196     1512  2D14               	goto	u3501
  8197     1513  2D15               	goto	u3500
  8198     1514                     u3501:
  8199     1514  2CED               	goto	l3002
  8200     1515                     u3500:
  8201     1515                     l32:
  8202     1515  0008               	return
  8203     1516                     __end_of_clcd_print:
  8204                           
  8205                           	psect	text21
  8206     1485                     __ptext21:	
  8207 ;; *************** function _init_config *****************
  8208 ;; Defined at:
  8209 ;;		line 14 in file "main.c"
  8210 ;; Parameters:    Size  Location     Type
  8211 ;;		None
  8212 ;; Auto vars:     Size  Location     Type
  8213 ;;		None
  8214 ;; Return value:  Size  Location     Type
  8215 ;;                  1    wreg      void 
  8216 ;; Registers used:
  8217 ;;		wreg, status,2, status,0, pclath, cstack
  8218 ;; Tracked objects:
  8219 ;;		On entry : 0/0
  8220 ;;		On exit  : 0/0
  8221 ;;		Unchanged: 0/0
  8222 ;; Data sizes:     COMMON   BANK0   BANK1   BANK3   BANK2
  8223 ;;      Params:         0       0       0       0       0
  8224 ;;      Locals:         0       0       0       0       0
  8225 ;;      Temps:          0       0       0       0       0
  8226 ;;      Totals:         0       0       0       0       0
  8227 ;;Total ram usage:        0 bytes
  8228 ;; Hardware stack levels used: 1
  8229 ;; Hardware stack levels required when called: 4
  8230 ;; This function calls:
  8231 ;;		_init_clcd
  8232 ;;		_init_digital_keypad
  8233 ;;		_init_timer2
  8234 ;; This function is called by:
  8235 ;;		_main
  8236 ;; This function uses a non-reentrant model
  8237 ;;
  8238                           
  8239     1485                     _init_config:	
  8240                           ;psect for function _init_config
  8241                           
  8242     1485                     l3646:	
  8243                           ;incstack = 0
  8244                           ; Regs used in _init_config: [wreg+status,2+status,0+pclath+cstack]
  8245                           
  8246                           
  8247                           ;main.c: 16: 
  8248     1485  160A  118A  2423  160A  118A  	fcall	_init_clcd
  8249                           
  8250                           ;main.c: 18: 
  8251     148A  160A  118A  241D  160A  118A  	fcall	_init_digital_keypad
  8252     148F                     l3648:
  8253                           
  8254                           ;main.c: 20:     init_config();
  8255     148F  160A  118A  242E  160A  118A  	fcall	_init_timer2
  8256     1494                     l3650:
  8257                           
  8258                           ;main.c: 22:     clcd_print("Press key 5 to",(0x80 + 1));
  8259     1494  178B               	bsf	11,7	;volatile
  8260     1495                     l3652:
  8261                           
  8262                           ;main.c: 23:     clcd_print("Power ON",(0xC0 + 5));
  8263     1495  170B               	bsf	11,6	;volatile
  8264     1496                     l3654:
  8265                           
  8266                           ;main.c: 24:     clcd_print("Washing Machine",(0x90 + 1));
  8267     1496  1683               	bsf	3,5	;RP0=1, select bank1
  8268     1497  1303               	bcf	3,6	;RP1=0, select bank1
  8269     1498  1087               	bcf	7,1	;volatile
  8270     1499                     l3656:
  8271                           
  8272                           ;main.c: 25:     while(read_digital_keypad(0) != 0x2F){
  8273     1499  1107               	bcf	7,2	;volatile
  8274     149A                     l3658:
  8275                           
  8276                           ;main.c: 26:         for(unsigned int delay=3000;delay--;);
  8277     149A  1283               	bcf	3,5	;RP0=0, select bank0
  8278     149B  1303               	bcf	3,6	;RP1=0, select bank0
  8279     149C  1107               	bcf	7,2	;volatile
  8280     149D                     l3660:
  8281                           
  8282                           ;main.c: 27:     }
  8283     149D  1087               	bcf	7,1	;volatile
  8284     149E                     l119:
  8285     149E  0008               	return
  8286     149F                     __end_of_init_config:
  8287                           
  8288                           	psect	text22
  8289     142E                     __ptext22:	
  8290 ;; *************** function _init_timer2 *****************
  8291 ;; Defined at:
  8292 ;;		line 12 in file "timers.c"
  8293 ;; Parameters:    Size  Location     Type
  8294 ;;		None
  8295 ;; Auto vars:     Size  Location     Type
  8296 ;;		None
  8297 ;; Return value:  Size  Location     Type
  8298 ;;                  1    wreg      void 
  8299 ;; Registers used:
  8300 ;;		None
  8301 ;; Tracked objects:
  8302 ;;		On entry : 0/0
  8303 ;;		On exit  : 0/0
  8304 ;;		Unchanged: 0/0
  8305 ;; Data sizes:     COMMON   BANK0   BANK1   BANK3   BANK2
  8306 ;;      Params:         0       0       0       0       0
  8307 ;;      Locals:         0       0       0       0       0
  8308 ;;      Temps:          0       0       0       0       0
  8309 ;;      Totals:         0       0       0       0       0
  8310 ;;Total ram usage:        0 bytes
  8311 ;; Hardware stack levels used: 1
  8312 ;; Hardware stack levels required when called: 1
  8313 ;; This function calls:
  8314 ;;		Nothing
  8315 ;; This function is called by:
  8316 ;;		_init_config
  8317 ;; This function uses a non-reentrant model
  8318 ;;
  8319                           
  8320     142E                     _init_timer2:	
  8321                           ;psect for function _init_timer2
  8322                           
  8323     142E                     l3236:	
  8324                           ;incstack = 0
  8325                           ; Regs used in _init_timer2: []
  8326                           
  8327                           
  8328                           ;timers.c: 16:     TMR2IE = 1;
  8329     142E  1683               	bsf	3,5	;RP0=1, select bank1
  8330     142F  1303               	bcf	3,6	;RP1=0, select bank1
  8331     1430  148C               	bsf	12,1	;volatile
  8332                           
  8333                           ;timers.c: 17:     TMR2ON=0;
  8334     1431  1283               	bcf	3,5	;RP0=0, select bank0
  8335     1432  1303               	bcf	3,6	;RP1=0, select bank0
  8336     1433  1112               	bcf	18,2	;volatile
  8337                           
  8338                           ;timers.c: 18:     PR2 = 250;
  8339     1434  30FA               	movlw	250
  8340     1435  1683               	bsf	3,5	;RP0=1, select bank1
  8341     1436  1303               	bcf	3,6	;RP1=0, select bank1
  8342     1437  0092               	movwf	18	;volatile
  8343     1438                     l159:
  8344     1438  0008               	return
  8345     1439                     __end_of_init_timer2:
  8346                           
  8347                           	psect	text23
  8348     141D                     __ptext23:	
  8349 ;; *************** function _init_digital_keypad *****************
  8350 ;; Defined at:
  8351 ;;		line 12 in file "digital_keypad.c"
  8352 ;; Parameters:    Size  Location     Type
  8353 ;;		None
  8354 ;; Auto vars:     Size  Location     Type
  8355 ;;		None
  8356 ;; Return value:  Size  Location     Type
  8357 ;;                  1    wreg      void 
  8358 ;; Registers used:
  8359 ;;		wreg, status,2
  8360 ;; Tracked objects:
  8361 ;;		On entry : 0/0
  8362 ;;		On exit  : 0/0
  8363 ;;		Unchanged: 0/0
  8364 ;; Data sizes:     COMMON   BANK0   BANK1   BANK3   BANK2
  8365 ;;      Params:         0       0       0       0       0
  8366 ;;      Locals:         0       0       0       0       0
  8367 ;;      Temps:          0       0       0       0       0
  8368 ;;      Totals:         0       0       0       0       0
  8369 ;;Total ram usage:        0 bytes
  8370 ;; Hardware stack levels used: 1
  8371 ;; Hardware stack levels required when called: 1
  8372 ;; This function calls:
  8373 ;;		Nothing
  8374 ;; This function is called by:
  8375 ;;		_init_config
  8376 ;; This function uses a non-reentrant model
  8377 ;;
  8378                           
  8379     141D                     _init_digital_keypad:	
  8380                           ;psect for function _init_digital_keypad
  8381                           
  8382     141D                     l3234:	
  8383                           ;incstack = 0
  8384                           ; Regs used in _init_digital_keypad: [wreg+status,2]
  8385                           
  8386                           
  8387                           ;digital_keypad.c: 15:     TRISB = TRISB | 0x3F;
  8388     141D  1683               	bsf	3,5	;RP0=1, select bank1
  8389     141E  1303               	bcf	3,6	;RP1=0, select bank1
  8390     141F  0806               	movf	6,w	;volatile
  8391     1420  383F               	iorlw	63
  8392     1421  0086               	movwf	6	;volatile
  8393     1422                     l39:
  8394     1422  0008               	return
  8395     1423                     __end_of_init_digital_keypad:
  8396                           
  8397                           	psect	text24
  8398     1423                     __ptext24:	
  8399 ;; *************** function _init_clcd *****************
  8400 ;; Defined at:
  8401 ;;		line 45 in file "clcd.c"
  8402 ;; Parameters:    Size  Location     Type
  8403 ;;		None
  8404 ;; Auto vars:     Size  Location     Type
  8405 ;;		None
  8406 ;; Return value:  Size  Location     Type
  8407 ;;                  1    wreg      void 
  8408 ;; Registers used:
  8409 ;;		wreg, status,2, status,0, pclath, cstack
  8410 ;; Tracked objects:
  8411 ;;		On entry : 0/0
  8412 ;;		On exit  : 0/0
  8413 ;;		Unchanged: 0/0
  8414 ;; Data sizes:     COMMON   BANK0   BANK1   BANK3   BANK2
  8415 ;;      Params:         0       0       0       0       0
  8416 ;;      Locals:         0       0       0       0       0
  8417 ;;      Temps:          0       0       0       0       0
  8418 ;;      Totals:         0       0       0       0       0
  8419 ;;Total ram usage:        0 bytes
  8420 ;; Hardware stack levels used: 1
  8421 ;; Hardware stack levels required when called: 3
  8422 ;; This function calls:
  8423 ;;		_init_display_controller
  8424 ;; This function is called by:
  8425 ;;		_init_config
  8426 ;; This function uses a non-reentrant model
  8427 ;;
  8428                           
  8429     1423                     _init_clcd:	
  8430                           ;psect for function _init_clcd
  8431                           
  8432     1423                     l3224:	
  8433                           ;incstack = 0
  8434                           ; Regs used in _init_clcd: [wreg+status,2+status,0+pclath+cstack]
  8435                           
  8436                           
  8437                           ;clcd.c: 48:     TRISD = 0x00;
  8438     1423  1683               	bsf	3,5	;RP0=1, select bank1
  8439     1424  1303               	bcf	3,6	;RP1=0, select bank1
  8440     1425  0188               	clrf	8	;volatile
  8441     1426                     l3226:
  8442                           
  8443                           ;clcd.c: 51:     TRISE2 = 0;
  8444     1426  1109               	bcf	9,2	;volatile
  8445     1427                     l3228:
  8446                           
  8447                           ;clcd.c: 52:     TRISE1 = 0;
  8448     1427  1089               	bcf	9,1	;volatile
  8449     1428                     l3230:
  8450                           
  8451                           ;clcd.c: 54:     init_display_controller();
  8452     1428  160A  118A  256D  160A  118A  	fcall	_init_display_controller
  8453     142D                     l23:
  8454     142D  0008               	return
  8455     142E                     __end_of_init_clcd:
  8456                           
  8457                           	psect	text25
  8458     156D                     __ptext25:	
  8459 ;; *************** function _init_display_controller *****************
  8460 ;; Defined at:
  8461 ;;		line 24 in file "clcd.c"
  8462 ;; Parameters:    Size  Location     Type
  8463 ;;		None
  8464 ;; Auto vars:     Size  Location     Type
  8465 ;;		None
  8466 ;; Return value:  Size  Location     Type
  8467 ;;                  1    wreg      void 
  8468 ;; Registers used:
  8469 ;;		wreg, status,2, status,0, pclath, cstack
  8470 ;; Tracked objects:
  8471 ;;		On entry : 0/0
  8472 ;;		On exit  : 0/0
  8473 ;;		Unchanged: 0/0
  8474 ;; Data sizes:     COMMON   BANK0   BANK1   BANK3   BANK2
  8475 ;;      Params:         0       0       0       0       0
  8476 ;;      Locals:         0       0       0       0       0
  8477 ;;      Temps:          2       0       0       0       0
  8478 ;;      Totals:         2       0       0       0       0
  8479 ;;Total ram usage:        2 bytes
  8480 ;; Hardware stack levels used: 1
  8481 ;; Hardware stack levels required when called: 2
  8482 ;; This function calls:
  8483 ;;		_clcd_write
  8484 ;; This function is called by:
  8485 ;;		_init_clcd
  8486 ;; This function uses a non-reentrant model
  8487 ;;
  8488                           
  8489     156D                     _init_display_controller:	
  8490                           ;psect for function _init_display_controller
  8491                           
  8492     156D                     l2980:	
  8493                           ;incstack = 0
  8494                           ; Regs used in _init_display_controller: [wreg+status,2+status,0+pclath+cstack]
  8495                           
  8496                           
  8497                           ;clcd.c: 27:     _delay((unsigned long)((30)*(20000000/4000.0)));
  8498     156D  30C3               	movlw	195
  8499     156E  00F7               	movwf	??_init_display_controller+1
  8500     156F  30CD               	movlw	205
  8501     1570  00F6               	movwf	??_init_display_controller
  8502     1571                     u5687:
  8503     1571  0BF6               	decfsz	??_init_display_controller,f
  8504     1572  2D71               	goto	u5687
  8505     1573  0BF7               	decfsz	??_init_display_controller+1,f
  8506     1574  2D71               	goto	u5687
  8507     1575                     l2982:
  8508                           
  8509                           ;clcd.c: 30:     clcd_write(0x33, 0);
  8510     1575  01F2               	clrf	clcd_write@mode
  8511     1576  3033               	movlw	51
  8512     1577  160A  118A  249F  160A  118A  	fcall	_clcd_write
  8513     157C                     l2984:
  8514                           
  8515                           ;clcd.c: 31:     _delay((unsigned long)((4100)*(20000000/4000000.0)));
  8516     157C  301B               	movlw	27
  8517     157D  00F7               	movwf	??_init_display_controller+1
  8518     157E  309E               	movlw	158
  8519     157F  00F6               	movwf	??_init_display_controller
  8520     1580                     u5697:
  8521     1580  0BF6               	decfsz	??_init_display_controller,f
  8522     1581  2D80               	goto	u5697
  8523     1582  0BF7               	decfsz	??_init_display_controller+1,f
  8524     1583  2D80               	goto	u5697
  8525     1584  0000               	nop
  8526                           
  8527                           ;clcd.c: 32:     clcd_write(0x33, 0);
  8528     1585  01F2               	clrf	clcd_write@mode
  8529     1586  3033               	movlw	51
  8530     1587  160A  118A  249F  160A  118A  	fcall	_clcd_write
  8531     158C                     l2986:
  8532                           
  8533                           ;clcd.c: 33:     _delay((unsigned long)((100)*(20000000/4000000.0)));
  8534     158C  30A6               	movlw	166
  8535     158D  00F6               	movwf	??_init_display_controller
  8536     158E                     u5707:
  8537     158E  0BF6               	decfsz	??_init_display_controller,f
  8538     158F  2D8E               	goto	u5707
  8539     1590  0000               	nop
  8540     1591                     l2988:
  8541                           
  8542                           ;clcd.c: 34:     clcd_write(0x33, 0);
  8543     1591  01F2               	clrf	clcd_write@mode
  8544     1592  3033               	movlw	51
  8545     1593  160A  118A  249F  160A  118A  	fcall	_clcd_write
  8546     1598                     l2990:
  8547                           
  8548                           ;clcd.c: 35:     _delay((unsigned long)((1)*(20000000/4000000.0)));
  8549     1598  2D99               	nop2	;2 cycle nop
  8550     1599  2D9A               	nop2	;2 cycle nop
  8551     159A  0000               	nop
  8552     159B                     l2992:
  8553                           
  8554                           ;clcd.c: 37:     clcd_write(0x3C, 0);
  8555     159B  01F2               	clrf	clcd_write@mode
  8556     159C  303C               	movlw	60
  8557     159D  160A  118A  249F  160A  118A  	fcall	_clcd_write
  8558     15A2                     l2994:
  8559                           
  8560                           ;clcd.c: 38:     _delay((unsigned long)((100)*(20000000/4000000.0)));
  8561     15A2  30A6               	movlw	166
  8562     15A3  00F6               	movwf	??_init_display_controller
  8563     15A4                     u5717:
  8564     15A4  0BF6               	decfsz	??_init_display_controller,f
  8565     15A5  2DA4               	goto	u5717
  8566     15A6  0000               	nop
  8567                           
  8568                           ;clcd.c: 39:     clcd_write(0x01, 0);
  8569     15A7  01F2               	clrf	clcd_write@mode
  8570     15A8  3001               	movlw	1
  8571     15A9  160A  118A  249F  160A  118A  	fcall	_clcd_write
  8572     15AE                     l2996:
  8573                           
  8574                           ;clcd.c: 40:     _delay((unsigned long)((500)*(20000000/4000000.0)));
  8575     15AE  3004               	movlw	4
  8576     15AF  00F7               	movwf	??_init_display_controller+1
  8577     15B0  303D               	movlw	61
  8578     15B1  00F6               	movwf	??_init_display_controller
  8579     15B2                     u5727:
  8580     15B2  0BF6               	decfsz	??_init_display_controller,f
  8581     15B3  2DB2               	goto	u5727
  8582     15B4  0BF7               	decfsz	??_init_display_controller+1,f
  8583     15B5  2DB2               	goto	u5727
  8584     15B6  2DB7               	nop2
  8585     15B7                     l2998:
  8586                           
  8587                           ;clcd.c: 41:     clcd_write(0x0C, 0);
  8588     15B7  01F2               	clrf	clcd_write@mode
  8589     15B8  300C               	movlw	12
  8590     15B9  160A  118A  249F  160A  118A  	fcall	_clcd_write
  8591                           
  8592                           ;clcd.c: 42:     _delay((unsigned long)((100)*(20000000/4000000.0)));
  8593     15BE  30A6               	movlw	166
  8594     15BF  00F6               	movwf	??_init_display_controller
  8595     15C0                     u5737:
  8596     15C0  0BF6               	decfsz	??_init_display_controller,f
  8597     15C1  2DC0               	goto	u5737
  8598     15C2  0000               	nop
  8599     15C3                     l20:
  8600     15C3  0008               	return
  8601     15C4                     __end_of_init_display_controller:
  8602                           
  8603                           	psect	text26
  8604     149F                     __ptext26:	
  8605 ;; *************** function _clcd_write *****************
  8606 ;; Defined at:
  8607 ;;		line 12 in file "clcd.c"
  8608 ;; Parameters:    Size  Location     Type
  8609 ;;  byte            1    wreg     unsigned char 
  8610 ;;  mode            1    2[COMMON] unsigned char 
  8611 ;; Auto vars:     Size  Location     Type
  8612 ;;  byte            1    5[COMMON] unsigned char 
  8613 ;; Return value:  Size  Location     Type
  8614 ;;                  1    wreg      void 
  8615 ;; Registers used:
  8616 ;;		wreg
  8617 ;; Tracked objects:
  8618 ;;		On entry : 0/0
  8619 ;;		On exit  : 0/0
  8620 ;;		Unchanged: 0/0
  8621 ;; Data sizes:     COMMON   BANK0   BANK1   BANK3   BANK2
  8622 ;;      Params:         1       0       0       0       0
  8623 ;;      Locals:         1       0       0       0       0
  8624 ;;      Temps:          2       0       0       0       0
  8625 ;;      Totals:         4       0       0       0       0
  8626 ;;Total ram usage:        4 bytes
  8627 ;; Hardware stack levels used: 1
  8628 ;; Hardware stack levels required when called: 1
  8629 ;; This function calls:
  8630 ;;		Nothing
  8631 ;; This function is called by:
  8632 ;;		_init_display_controller
  8633 ;;		_clcd_putch
  8634 ;;		_clcd_print
  8635 ;;		_clear_clcd
  8636 ;; This function uses a non-reentrant model
  8637 ;;
  8638                           
  8639     149F                     _clcd_write:	
  8640                           ;psect for function _clcd_write
  8641                           
  8642                           
  8643                           ;incstack = 0
  8644                           ; Regs used in _clcd_write: [wreg]
  8645                           ;clcd_write@byte stored from wreg
  8646     149F  00F5               	movwf	clcd_write@byte
  8647     14A0                     l2972:
  8648                           
  8649                           ;clcd.c: 12: void clcd_write(unsigned char byte, unsigned char mode);clcd.c: 13: {;clcd.
      +                          c: 14:     RE2 = mode;
  8650     14A0  1872               	btfsc	clcd_write@mode,0
  8651     14A1  2CA3               	goto	u3481
  8652     14A2  2CA7               	goto	u3480
  8653     14A3                     u3481:
  8654     14A3  1283               	bcf	3,5	;RP0=0, select bank0
  8655     14A4  1303               	bcf	3,6	;RP1=0, select bank0
  8656     14A5  1509               	bsf	9,2	;volatile
  8657     14A6  2CAA               	goto	u3494
  8658     14A7                     u3480:
  8659     14A7  1283               	bcf	3,5	;RP0=0, select bank0
  8660     14A8  1303               	bcf	3,6	;RP1=0, select bank0
  8661     14A9  1109               	bcf	9,2	;volatile
  8662     14AA                     u3494:
  8663     14AA                     l2974:
  8664                           
  8665                           ;clcd.c: 15:     PORTD = byte;
  8666     14AA  0875               	movf	clcd_write@byte,w
  8667     14AB  0088               	movwf	8	;volatile
  8668     14AC                     l2976:
  8669                           
  8670                           ;clcd.c: 17:     RE1 = 1;
  8671     14AC  1489               	bsf	9,1	;volatile
  8672                           
  8673                           ;clcd.c: 18:     _delay((unsigned long)((100)*(20000000/4000000.0)));
  8674     14AD  30A6               	movlw	166
  8675     14AE  00F3               	movwf	??_clcd_write
  8676     14AF                     u5747:
  8677     14AF  0BF3               	decfsz	??_clcd_write,f
  8678     14B0  2CAF               	goto	u5747
  8679     14B1  0000               	nop
  8680     14B2                     l2978:
  8681                           
  8682                           ;clcd.c: 19:     RE1 = 0;
  8683     14B2  1283               	bcf	3,5	;RP0=0, select bank0
  8684     14B3  1303               	bcf	3,6	;RP1=0, select bank0
  8685     14B4  1089               	bcf	9,1	;volatile
  8686                           
  8687                           ;clcd.c: 21:     _delay((unsigned long)((4100)*(20000000/4000000.0)));
  8688     14B5  301B               	movlw	27
  8689     14B6  00F4               	movwf	??_clcd_write+1
  8690     14B7  309E               	movlw	158
  8691     14B8  00F3               	movwf	??_clcd_write
  8692     14B9                     u5757:
  8693     14B9  0BF3               	decfsz	??_clcd_write,f
  8694     14BA  2CB9               	goto	u5757
  8695     14BB  0BF4               	decfsz	??_clcd_write+1,f
  8696     14BC  2CB9               	goto	u5757
  8697     14BD  0000               	nop
  8698     14BE                     l17:
  8699     14BE  0008               	return
  8700     14BF                     __end_of_clcd_write:
  8701                           
  8702                           	psect	text27
  8703     1516                     __ptext27:	
  8704 ;; *************** function _isr *****************
  8705 ;; Defined at:
  8706 ;;		line 12 in file "isr.c"
  8707 ;; Parameters:    Size  Location     Type
  8708 ;;		None
  8709 ;; Auto vars:     Size  Location     Type
  8710 ;;		None
  8711 ;; Return value:  Size  Location     Type
  8712 ;;                  1    wreg      void 
  8713 ;; Registers used:
  8714 ;;		wreg, status,2, status,0
  8715 ;; Tracked objects:
  8716 ;;		On entry : 0/0
  8717 ;;		On exit  : 0/0
  8718 ;;		Unchanged: 0/0
  8719 ;; Data sizes:     COMMON   BANK0   BANK1   BANK3   BANK2
  8720 ;;      Params:         0       0       0       0       0
  8721 ;;      Locals:         0       0       0       0       0
  8722 ;;      Temps:          2       0       0       0       0
  8723 ;;      Totals:         2       0       0       0       0
  8724 ;;Total ram usage:        2 bytes
  8725 ;; Hardware stack levels used: 1
  8726 ;; This function calls:
  8727 ;;		Nothing
  8728 ;; This function is called by:
  8729 ;;		Interrupt level 1
  8730 ;; This function uses a non-reentrant model
  8731 ;;
  8732                           
  8733     1516                     _isr:	
  8734                           ;psect for function _isr
  8735                           
  8736     1516                     i1l2836:
  8737                           
  8738                           ;isr.c: 14:     static unsigned long int count=0 ;;isr.c: 15:     if(TMR2IF == 1)
  8739     1516  1283               	bcf	3,5	;RP0=0, select bank0
  8740     1517  1303               	bcf	3,6	;RP1=0, select bank0
  8741     1518  1C8C               	btfss	12,1	;volatile
  8742     1519  2D1B               	goto	u332_21
  8743     151A  2D1C               	goto	u332_20
  8744     151B                     u332_21:
  8745     151B  2D66               	goto	i1l74
  8746     151C                     u332_20:
  8747     151C                     i1l2838:
  8748                           
  8749                           ;isr.c: 16:     {;isr.c: 17:         if( ++count == 20000)
  8750     151C  3001               	movlw	1
  8751     151D  1683               	bsf	3,5	;RP0=1, select bank1
  8752     151E  1303               	bcf	3,6	;RP1=0, select bank1
  8753     151F  07C6               	addwf	isr@count^(0+128),f
  8754     1520  3000               	movlw	0
  8755     1521  1803               	skipnc
  8756     1522  3001               	movlw	1
  8757     1523  07C7               	addwf	(isr@count+1)^(0+128),f
  8758     1524  3000               	movlw	0
  8759     1525  1803               	skipnc
  8760     1526  3001               	movlw	1
  8761     1527  07C8               	addwf	(isr@count+2)^(0+128),f
  8762     1528  3000               	movlw	0
  8763     1529  1803               	skipnc
  8764     152A  3001               	movlw	1
  8765     152B  07C9               	addwf	(isr@count+3)^(0+128),f
  8766     152C  3020               	movlw	32
  8767     152D  0646               	xorwf	isr@count^(0+128),w
  8768     152E  304E               	movlw	78
  8769     152F  1903               	skipnz
  8770     1530  0647               	xorwf	(isr@count+1)^(0+128),w
  8771     1531  0448               	iorwf	(isr@count+2)^(0+128),w
  8772     1532  0449               	iorwf	(isr@count+3)^(0+128),w
  8773     1533  1D03               	btfss	3,2
  8774     1534  2D36               	goto	u333_21
  8775     1535  2D37               	goto	u333_20
  8776     1536                     u333_21:
  8777     1536  2D63               	goto	i1l2856
  8778     1537                     u333_20:
  8779     1537                     i1l2840:
  8780                           
  8781                           ;isr.c: 18:         {;isr.c: 19:             if(sec !=0){
  8782     1537  1283               	bcf	3,5	;RP0=0, select bank0
  8783     1538  1303               	bcf	3,6	;RP1=0, select bank0
  8784     1539  086E               	movf	_sec,w
  8785     153A  1903               	btfsc	3,2
  8786     153B  2D3D               	goto	u334_21
  8787     153C  2D3E               	goto	u334_20
  8788     153D                     u334_21:
  8789     153D  2D4B               	goto	i1l2846
  8790     153E                     u334_20:
  8791     153E                     i1l2842:
  8792                           
  8793                           ;isr.c: 20:             sec--;
  8794     153E  3001               	movlw	1
  8795     153F  02EE               	subwf	_sec,f
  8796     1540                     i1l2844:
  8797                           
  8798                           ;isr.c: 21:             count = 0;
  8799     1540  3000               	movlw	0
  8800     1541  1683               	bsf	3,5	;RP0=1, select bank1
  8801     1542  1303               	bcf	3,6	;RP1=0, select bank1
  8802     1543  00C9               	movwf	(isr@count+3)^(0+128)
  8803     1544  3000               	movlw	0
  8804     1545  00C8               	movwf	(isr@count+2)^(0+128)
  8805     1546  3000               	movlw	0
  8806     1547  00C7               	movwf	(isr@count+1)^(0+128)
  8807     1548  3000               	movlw	0
  8808     1549  00C6               	movwf	isr@count^(0+128)
  8809                           
  8810                           ;isr.c: 22:             }
  8811     154A  2D59               	goto	i1l2854
  8812     154B                     i1l2846:
  8813     154B  086E               	movf	_sec,w
  8814     154C  1D03               	btfss	3,2
  8815     154D  2D4F               	goto	u335_21
  8816     154E  2D50               	goto	u335_20
  8817     154F                     u335_21:
  8818     154F  2D59               	goto	i1l2854
  8819     1550                     u335_20:
  8820     1550                     i1l2848:
  8821     1550  086D               	movf	_min,w
  8822     1551  1903               	btfsc	3,2
  8823     1552  2D54               	goto	u336_21
  8824     1553  2D55               	goto	u336_20
  8825     1554                     u336_21:
  8826     1554  2D59               	goto	i1l2854
  8827     1555                     u336_20:
  8828     1555                     i1l2850:
  8829                           
  8830                           ;isr.c: 24:                 min--;
  8831     1555  3001               	movlw	1
  8832     1556  02ED               	subwf	_min,f
  8833     1557                     i1l2852:
  8834                           
  8835                           ;isr.c: 25:                 sec=60;
  8836     1557  303C               	movlw	60
  8837     1558  00EE               	movwf	_sec
  8838     1559                     i1l2854:
  8839                           
  8840                           ;isr.c: 28:             count=0;
  8841     1559  3000               	movlw	0
  8842     155A  1683               	bsf	3,5	;RP0=1, select bank1
  8843     155B  1303               	bcf	3,6	;RP1=0, select bank1
  8844     155C  00C9               	movwf	(isr@count+3)^(0+128)
  8845     155D  3000               	movlw	0
  8846     155E  00C8               	movwf	(isr@count+2)^(0+128)
  8847     155F  3000               	movlw	0
  8848     1560  00C7               	movwf	(isr@count+1)^(0+128)
  8849     1561  3000               	movlw	0
  8850     1562  00C6               	movwf	isr@count^(0+128)
  8851     1563                     i1l2856:
  8852                           
  8853                           ;isr.c: 31:         TMR2IF = 0;
  8854     1563  1283               	bcf	3,5	;RP0=0, select bank0
  8855     1564  1303               	bcf	3,6	;RP1=0, select bank0
  8856     1565  108C               	bcf	12,1	;volatile
  8857     1566                     i1l74:
  8858     1566  0871               	movf	??_isr+1,w
  8859     1567  008A               	movwf	10
  8860     1568  0E70               	swapf	??_isr,w
  8861     1569  0083               	movwf	3
  8862     156A  0EFE               	swapf	btemp,f
  8863     156B  0E7E               	swapf	btemp,w
  8864     156C  0009               	retfie
  8865     156D                     __end_of_isr:
  8866     0002                     ___latbits      equ	2
  8867     007E                     btemp           set	126	;btemp
  8868     007E                     wtemp0          set	126
  8869                           
  8870                           	psect	intentry
  8871     0004                     __pintentry:	
  8872                           ;incstack = 0
  8873                           ; Regs used in _isr: [wreg+status,2+status,0]
  8874                           
  8875     0004                     interrupt_function:
  8876     007E                     saved_w         set	btemp
  8877     0004  00FE               	movwf	btemp
  8878     0005  0E03               	swapf	3,w
  8879     0006  00F0               	movwf	??_isr
  8880     0007  080A               	movf	10,w
  8881     0008  00F1               	movwf	??_isr+1
  8882     0009  160A  118A  2D16   	ljmp	_isr
  8883                           
  8884                           	psect	config
  8885                           
  8886                           ;Config register CONFIG @ 0x2007
  8887                           ;	Oscillator Selection bits
  8888                           ;	FOSC = 0x3, unprogrammed default
  8889                           ;	Watchdog Timer Enable bit
  8890                           ;	WDTE = OFF, WDT disabled
  8891                           ;	Power-up Timer Enable bit
  8892                           ;	PWRTE = 0x1, unprogrammed default
  8893                           ;	Brown-out Reset Enable bit
  8894                           ;	BOREN = 0x1, unprogrammed default
  8895                           ;	Low-Voltage (Single-Supply) In-Circuit Serial Programming Enable bit
  8896                           ;	LVP = 0x1, unprogrammed default
  8897                           ;	Data EEPROM Memory Code Protection bit
  8898                           ;	CPD = 0x1, unprogrammed default
  8899                           ;	Flash Program Memory Write Enable bits
  8900                           ;	WRT = 0x3, unprogrammed default
  8901                           ;	In-Circuit Debugger Mode bit
  8902                           ;	DEBUG = 0x1, unprogrammed default
  8903                           ;	Flash Program Memory Code Protection bit
  8904                           ;	CP = 0x1, unprogrammed default
  8905     2007                     	org	8199
  8906     2007  3FFB               	dw	16379

Data Sizes:
    Strings     363
    Constant    0
    Data        41
    BSS         14
    Persistent  0
    Stack       0

Auto Spaces:
    Space          Size  Autos    Used
    COMMON           14      9      12
    BANK0            80     72      79
    BANK1            80      5      50
    BANK3            96      0       0
    BANK2            96      0       0

Pointer List with Targets:

    clcd_print@str	PTR const unsigned char  size(2) Largest target is 18
		 -> STR_1(CODE[15]), STR_10(CODE[7]), STR_11(CODE[11]), STR_12(CODE[12]), 
		 -> STR_13(CODE[8]), STR_14(CODE[11]), STR_15(CODE[10]), STR_16(CODE[9]), 
		 -> STR_17(CODE[10]), STR_18(CODE[11]), STR_19(CODE[5]), STR_2(CODE[9]), 
		 -> STR_20(CODE[4]), STR_21(CODE[7]), STR_22(CODE[5]), STR_23(CODE[4]), 
		 -> STR_24(CODE[12]), STR_25(CODE[16]), STR_26(CODE[16]), STR_27(CODE[12]), 
		 -> STR_28(CODE[6]), STR_29(CODE[6]), STR_3(CODE[16]), STR_30(CODE[11]), 
		 -> STR_31(CODE[5]), STR_32(CODE[11]), STR_33(CODE[11]), STR_34(CODE[5]), 
		 -> STR_35(CODE[6]), STR_36(CODE[6]), STR_37(CODE[6]), STR_38(CODE[6]), 
		 -> STR_39(CODE[6]), STR_4(CODE[13]), STR_40(CODE[5]), STR_41(CODE[17]), 
		 -> STR_42(CODE[14]), STR_43(CODE[13]), STR_44(CODE[18]), STR_45(CODE[11]), 
		 -> STR_46(CODE[5]), STR_47(CODE[11]), STR_48(CODE[11]), STR_5(CODE[11]), 
		 -> STR_6(CODE[10]), STR_7(CODE[6]), STR_8(CODE[6]), STR_9(CODE[10]), 

    washing_program	PTR unsigned char [12] size(2) Largest target is 12
		 -> STR_10(CODE[7]), STR_11(CODE[11]), STR_12(CODE[12]), STR_13(CODE[8]), 
		 -> STR_14(CODE[11]), STR_15(CODE[10]), STR_16(CODE[9]), STR_17(CODE[10]), 
		 -> STR_18(CODE[11]), STR_7(CODE[6]), STR_8(CODE[6]), STR_9(CODE[10]), 

    water_level_options	PTR unsigned char [5] size(2) Largest target is 7
		 -> STR_19(CODE[5]), STR_20(CODE[4]), STR_21(CODE[7]), STR_22(CODE[5]), 
		 -> STR_23(CODE[4]), 


Critical Paths under _main in COMMON

    _water_level_screen->_clcd_putch
    _washing_program_->_clcd_putch
    _start->_clcd_putch
    _door_status_check->_clear_clcd
    _clear_clcd->_clcd_write
    ___fltol->___xxtofl
    ___flsub->___fladd
    ___flsub->___xxtofl
    ___flmul->__Umul8_16
    ___flmul->___xxtofl
    ___flge->___xxtofl
    _power_ON_screen->_clcd_putch
    _clcd_putch->___awmod
    _clcd_print->___awmod
    _init_clcd->_init_display_controller
    _init_display_controller->_clcd_write

Critical Paths under _isr in COMMON

    None.

Critical Paths under _main in BANK0

    _main->_start
    _water_level_screen->_clcd_putch
    _washing_program_->_clcd_putch
    _start->___flge
    _door_status_check->_clcd_print
    ___fltol->___flmul
    ___flsub->___flmul
    ___flmul->___xxtofl
    ___flge->___flsub
    _power_ON_screen->_clcd_putch
    _clcd_putch->___awdiv

Critical Paths under _isr in BANK0

    None.

Critical Paths under _main in BANK1

    None.

Critical Paths under _isr in BANK1

    None.

Critical Paths under _main in BANK3

    None.

Critical Paths under _isr in BANK3

    None.

Critical Paths under _main in BANK2

    None.

Critical Paths under _isr in BANK2

    None.

Call Graph Tables:

 ---------------------------------------------------------------------------------
 (Depth) Function   	        Calls       Base Space   Used Autos Params    Refs
 ---------------------------------------------------------------------------------
 (0) _main                                                 8     8      0   13457
                                             69 BANK0      3     3      0
                                              0 BANK1      5     5      0
                         _clcd_print
                         _clear_clcd
                        _init_config
                    _power_ON_screen
                _read_digital_keypad
                           _set_time
                              _start
                   _washing_program_
                 _water_level_screen
 ---------------------------------------------------------------------------------
 (1) _water_level_screen                                   3     3      0    1325
                                              5 BANK0      3     3      0
                            ___awmod
                         _clcd_print
                         _clcd_putch
                         _clear_clcd
 ---------------------------------------------------------------------------------
 (1) _washing_program_                                     3     3      0    1325
                                              5 BANK0      3     3      0
                            ___awmod
                         _clcd_print
                         _clcd_putch
                         _clear_clcd
 ---------------------------------------------------------------------------------
 (1) _start                                               13    13      0    8646
                                             56 BANK0     13    13      0
                            ___awdiv
                            ___awmod
                             ___bmul
                             ___flge
                            ___flmul
                            ___flsub
                            ___fltol
                           ___xxtofl
                         _clcd_print
                         _clcd_putch
                         _clear_clcd
                  _door_status_check
 ---------------------------------------------------------------------------------
 (2) _door_status_check                                    0     0      0     582
                         _clcd_print
                         _clear_clcd
 ---------------------------------------------------------------------------------
 (2) _clear_clcd                                           2     2      0     111
                                              6 COMMON     2     2      0
                         _clcd_write
 ---------------------------------------------------------------------------------
 (2) ___xxtofl                                            14    10      4     526
                                              2 COMMON     4     0      4
                                              0 BANK0     10    10      0
 ---------------------------------------------------------------------------------
 (2) ___fltol                                             10     6      4     346
                                              6 COMMON     2     2      0
                                             36 BANK0      8     4      4
                            ___flmul (ARG)
                           ___xxtofl (ARG)
 ---------------------------------------------------------------------------------
 (2) ___flsub                                              8     0      8    3025
                                             36 BANK0      8     0      8
                            ___fladd
                            ___flmul (ARG)
                           ___xxtofl (ARG)
 ---------------------------------------------------------------------------------
 (3) ___fladd                                             20    12      8    2954
                                              2 COMMON     4     4      0
                                              0 BANK0     16     8      8
 ---------------------------------------------------------------------------------
 (2) ___flmul                                             26    18      8    2452
                                             10 BANK0     26    18      8
                          __Umul8_16
                           ___xxtofl (ARG)
 ---------------------------------------------------------------------------------
 (3) __Umul8_16                                            9     7      2     232
                                              2 COMMON     4     2      2
                                              0 BANK0      5     5      0
 ---------------------------------------------------------------------------------
 (2) ___flge                                              12     4      8     272
                                             44 BANK0     12     4      8
                            ___flmul (ARG)
                            ___flsub (ARG)
                           ___xxtofl (ARG)
 ---------------------------------------------------------------------------------
 (2) ___bmul                                               3     2      1       6
                                              2 COMMON     3     2      1
 ---------------------------------------------------------------------------------
 (2) ___awmod                                              6     2      4     465
                                              2 COMMON     6     2      4
 ---------------------------------------------------------------------------------
 (2) ___awdiv                                              8     4      4      90
                                              2 COMMON     4     0      4
                                              0 BANK0      4     4      0
 ---------------------------------------------------------------------------------
 (1) _set_time                                             0     0      0       0
 ---------------------------------------------------------------------------------
 (1) _read_digital_keypad                                  2     2      0     130
                                              2 COMMON     1     1      0
 ---------------------------------------------------------------------------------
 (1) _power_ON_screen                                      7     7      0     900
                                              5 BANK0      7     7      0
                         _clcd_print
                         _clcd_putch
 ---------------------------------------------------------------------------------
 (2) _clcd_putch                                           2     1      1     231
                                              8 COMMON     1     0      1
                                              4 BANK0      1     1      0
                            ___awdiv (ARG)
                            ___awmod (ARG)
                         _clcd_write
 ---------------------------------------------------------------------------------
 (2) _clcd_print                                           3     0      3     471
                                              0 BANK0      3     0      3
                            ___awmod (ARG)
                         _clcd_write
 ---------------------------------------------------------------------------------
 (1) _init_config                                          0     0      0     111
                          _init_clcd
                _init_digital_keypad
                        _init_timer2
 ---------------------------------------------------------------------------------
 (2) _init_timer2                                          0     0      0       0
 ---------------------------------------------------------------------------------
 (2) _init_digital_keypad                                  0     0      0       0
 ---------------------------------------------------------------------------------
 (2) _init_clcd                                            0     0      0     111
            _init_display_controller
 ---------------------------------------------------------------------------------
 (3) _init_display_controller                              2     2      0     111
                                              6 COMMON     2     2      0
                         _clcd_write
 ---------------------------------------------------------------------------------
 (3) _clcd_write                                           4     3      1     111
                                              2 COMMON     4     3      1
 ---------------------------------------------------------------------------------
 Estimated maximum stack depth 3
 ---------------------------------------------------------------------------------
 (Depth) Function   	        Calls       Base Space   Used Autos Params    Refs
 ---------------------------------------------------------------------------------
 (5) _isr                                                  2     2      0       0
                                              0 COMMON     2     2      0
 ---------------------------------------------------------------------------------
 Estimated maximum stack depth 5
 ---------------------------------------------------------------------------------

 Call Graph Graphs:

 _main (ROOT)
   _clcd_print
     ___awmod (ARG)
     _clcd_write (ARG)
   _clear_clcd
     _clcd_write
   _init_config
     _init_clcd
       _init_display_controller
         _clcd_write
     _init_digital_keypad
     _init_timer2
   _power_ON_screen
     _clcd_print
     _clcd_putch
       ___awdiv (ARG)
       ___awmod (ARG)
       _clcd_write (ARG)
   _read_digital_keypad
   _set_time
   _start
     ___awdiv
     ___awmod
     ___bmul
     ___flge
       ___flmul (ARG)
         __Umul8_16
         ___xxtofl (ARG)
       ___flsub (ARG)
         ___fladd
         ___flmul (ARG)
         ___xxtofl (ARG)
       ___xxtofl (ARG)
     ___flmul
     ___flsub
     ___fltol
       ___flmul (ARG)
       ___xxtofl (ARG)
     ___xxtofl
     _clcd_print
     _clcd_putch
     _clear_clcd
     _door_status_check
       _clcd_print
       _clear_clcd
   _washing_program_
     ___awmod
     _clcd_print
     _clcd_putch
     _clear_clcd
   _water_level_screen
     ___awmod
     _clcd_print
     _clcd_putch
     _clear_clcd

 _isr (ROOT)

Address spaces:
Name               Size   Autos  Total    Usage
BANK3               96      0       0      0.0%
BITBANK3            96      0       0      0.0%
BANK2               96      0       0      0.0%
BITBANK2            96      0       0      0.0%
BANK1               80      5      50     62.5%
BITBANK1            80      0       0      0.0%
BANK0               80     72      79     98.8%
BITBANK0            80      0       0      0.0%
COMMON              14      9      12     85.7%
BITCOMMON           14      0       0      0.0%
DATA                 0      0     139      0.0%
STACK                0      0       0      0.0%


Microchip Technology PIC Macro Assembler V3.00 build 20241204225717 
Symbol Table                                                                                   Tue Jul 01 16:36:12 2025

               ?_power_ON_screen 0070                                pc 0002                   ___bmul@product 0073  
                 clcd_print@addr 0022                               l20 15C3                               l23 142D  
                             l32 1515                               l17 14BE                               l26 1484  
                             l52 089E                               l53 089D                               l39 1422  
                   ___awdiv@sign 0021                               fsr 0004              __Umul8_16@word_mpld 0022  
                            l210 175B                              l213 1449                              l141 0C5D  
                            l310 0D3F                              l119 149E                              l303 0D2A  
                            l223 0B1A                              l135 0C0E                              l234 0C62  
                            l228 094F                              l261 0CB3                              l237 0C66  
                            l326 0D6D                              l159 1438                              l271 0CC9  
                            l263 0CB3                              l239 0C69                              l351 16A8  
                            l329 0DA7                              l353 16AE                              l354 16EA  
                            l347 0421                              l269 0CC9                              l621 17E6  
                            l286 0CF4                              l606 161A                              l296 0D11  
                            l641 07C4                              l466 145C                              l626 17FF  
                            l618 177A                              l634 07D9                              l644 07D9  
                            l741 0E05                              l736 0DD4                              l593 167F  
                            l745 0E86                              l762 0F52                              l754 0FFF  
                            l843 06D5                              l747 0E5F                              l772 0F99  
                            l837 0763                              l766 0F76                              l783 0FF5  
                            l775 0FD5                              l856 0818                              l784 0FFF  
                            l849 0759                              l881 0974                              l858 082A  
                            l882 0985                              l787 14E2                              l883 0A05  
                            l894 09CF                              l895 09DB                              l887 09B3  
                            _GIE 005F                              _RB0 0030                              _RC1 0039  
                            _RC2 003A                              _RE1 0049                              _RE2 004A  
                            _PR2 0092                              _min 006D                              _sec 006E  
                            _isr 1516                   clcd_putch@addr 0078                              fsr0 0004  
                 clcd_putch@data 0024                              indf 0000                     ___awmod@sign 0077  
                   ___flmul@aexp 0038                     ___flmul@bexp 003D                     ___flmul@sign 0037  
                   ___flmul@temp 0042                     ___flmul@prod 003E                     ___fltol@exp1 0077  
                           l3000 14E3                             l3002 14ED                             l3010 1440  
                           l3004 14FD                             l3100 0E6C                             l3020 0DB6  
                           l3012 0DA8                             l3006 1505                             l3102 0E6E  
                           l3110 0E80                             l3030 0DCA                             l3022 0DB7  
                           l3014 0DAC                             l3200 0FED                             l3120 0EB3  
                           l3112 0E8A                             l3104 0E74                             l3040 0DDF  
                           l3024 0DBC                             l3032 0DCC                             l3016 0DAE  
                           l3008 1439            ??_read_digital_keypad 0072                             l3210 0805  
                           l3202 0FF1                             l3130 0EC8                             l3122 0EB7  
                           l3114 0E8F                             l3106 0E75                             l3050 0DF2  
                           l3042 0DE3                             l3034 0DD6                             l3026 0DC1  
                           l3018 0DB2                             l4100 1629                             l3220 0826  
                           l3212 0807                             l3204 0FF3                             l3140 0F2B  
                           l3132 0EC9                             l3124 0EBB                             l3108 0E7E  
                           l3060 0E0F                             l3052 0DFA                             l3044 0DE7  
                           l3036 0DD8                             l3028 0DC9                             l3230 1428  
                           l4110 163C                             l4102 162D                             l3214 080E  
                           l3206 0FFA                             l3150 0F5A                             l3142 0F2D  
                           l3134 0ED2                             l3126 0EC2                             l3118 0E9A  
                           l3070 0E19                             l3062 0E11                             l3054 0DFB  
                           l3046 0DE8                             l3038 0DDE                             l3224 1423  
                           l3232 1473                             l4120 165D                             l4112 163F  
                           l4104 1632                             l3320 15C9                             l3216 0812  
                           l3208 0FFE                             l3160 0F75                             l3152 0F5F  
                           l3144 0F30                             l3128 0EC4                             l3136 0ED5  
                           l3080 0E23                             l3072 0E1B                             l3064 0E13  
                           l3048 0DED                             l3056 0DFD                             l3240 1686  
                           l4200 027F                             l3226 1426                             l3234 141D  
                           l4130 1676                             l4122 1663                             l4114 1646  
                           l4106 1634                             l3330 15DF                             l3322 15CE  
                           l3218 0821                             l3162 0F7A                             l3170 0F87  
                           l3146 0F35                             l3138 0EED                             l3090 0E2D  
                           l3082 0E25                             l3074 0E1D                             l3066 0E15  
                           l3058 0E0B                             l3410 14BF                             l3250 16B6  
                           l3242 1689                             l4210 0335                             l4202 028D  
                           l3228 1427                             l3236 142E                             l4132 167B  
                           l4124 1664                             l4116 1648                             l4108 1636  
                           l3340 15F9                             l3332 15E2                             l3324 15D0  
                           l3316 15C4                             l3260 144C                             l3500 0681  
                           l3420 0428                             l3164 0F7E                             l3156 0F68  
                           l3148 0F44                             l3172 0F8B                             l3084 0E27  
                           l3076 0E1F                             l3068 0E17                             l3092 0E2F  
                           l3412 14C3                             l3404 07B9                             l3252 16C3  
                           l3244 168E                             l4220 037B                             l4212 0343  
                           l4204 029B                             l4140 0056                             l4300 0BF2  
                           l4126 166B                             l4118 164C                             l3350 1616  
                           l3342 15FF                             l3334 15E9                             l3326 15D4  
                           l3318 15C5                             l3262 1450                             l3510 06A6  
                           l3502 068A                             l3430 043B                             l3422 042C  
                           l3190 0FD3                             l3182 0F9E                             l3174 0F8C  
                           l3166 0F80                             l3158 0F71                             l3094 0E30  
                           l3086 0E29                             l3078 0E21                             l3406 07C9  
                           l3254 16D0                             l3246 169B                             l3238 1680  
                           l4230 03DB                             l4222 0396                             l4214 0349  
                           l4206 02A1                             l4150 00A5                             l4142 005B  
                           l4310 0C0C                             l4302 0BF8                             l3600 082B  
                           l4128 1671                             l3344 1606                             l3336 15EB  
                           l3328 15D9                             l3264 1452                             l3360 1796  
                           l3520 06BE                             l3512 06AF                             l3504 0698  
                           l3440 0454                             l3432 0443                             l3424 0430  
                           l3416 0422                             l3192 0FDA                             l3184 0FA3  
                           l3176 0F90                             l3168 0F85                             l3096 0E47  
                           l3088 0E2B                             l3408 07CE                             l3256 16DD  
                           l3248 16B1                             l4240 03F4                             l4232 03E0  
                           l4224 039E                             l4216 0355                             l4208 0327  
                           l4160 0104                             l4152 00C0                             l4144 0068  
                           l4136 0048                             l4320 0C32                             l4312 0C0F  
                           l4304 0BFE                             l3610 083D                             l3602 082F  
                           l3338 15EF                             l3346 160C                             l3266 1454  
                           l3258 144B                             l3370 17FE                             l3362 179A  
                           l3354 175C                             l3530 06ED                             l3522 06D2  
                           l3506 06A1                             l3514 06B5                             l3450 046B  
                           l3442 0458                             l3434 0445                             l3426 0431  
                           l3418 0426                             l3194 0FDF                             l3186 0FB1  
                           l3178 0F96                             l3098 0E63                             l4250 041C  
                           l4242 0401                             l4234 03E5                             l4226 03B9  
                           l4218 0360                             l4170 013E                             l4162 0112  
                           l4154 00C8                             l4146 007D                             l4138 004D  
                           l4322 0C38                             l4314 0C18                             l4306 0C05  
                           l3620 0851                             l3612 0841                             l3604 0831  
                           l4092 161B                             l3348 1611                             l3268 145B  
                           l3364 17BE                             l3356 1772                             l3540 0728  
                           l3532 06F1                             l3516 06B9                             l3508 06A5  
                           l3452 046D                             l3444 0459                             l3436 044D  
                           l3428 0436                             l3196 0FE7                             l3188 0FB5  
                           l3380 0778                             l4244 040F                             l4236 03E8  
                           l4228 03D4                             l4180 0217                             l4172 014B  
                           l4164 0117                             l4156 00E3                             l4148 008A  
                           l4324 0C41                             l4316 0C21                             l4308 0C09  
                           l4260 0B48                             l4252 0B1B                             l3630 0878  
                           l3622 0860                             l3606 0837                             l3614 0844  
                           l3710 0C82                             l3702 0C6C                             l4094 161E  
                           l3366 17C2                             l3358 178E                             l3550 0753  
                           l3542 0737                             l3534 070A                             l3526 06DA  
                           l3518 06BA                             l3470 04DA                             l3462 0488  
                           l3454 0475                             l3446 045E                             l3438 0450  
                           l3198 0FEC                             l3390 079A                             l3382 078B  
                           l3374 0764                             l4246 0412                             l4238 03E9  
                           l4190 0228                             l4182 021A                             l4174 015A  
                           l4166 0124                             l4158 00FE                             l4318 0C29  
                           l4270 0B71                             l4262 0B4E                             l4254 0B20  
                           l3632 0881                             l3616 084A                             l3608 083C  
                           l3800 0D59                             l3720 0C9A                             l3712 0C85  
                           l3704 0C7D                             l4096 1622                             l3368 17FC  
                           l3552 0754                             l3544 0741                             l3528 06DF  
                           l3536 0710                             l3480 0553                             l3472 0504  
                           l3464 0496                             l3456 047A                             l3448 0463  
                           l3384 078C                             l3376 076F                             l3560 0958  
                           l4248 0416                             l4192 0234                             l4176 0197  
                           l4168 0131                             l4184 021B                             l4328 0C4A  
                           l4280 0BA0                             l4272 0B80                             l4264 0B5C  
                           l4256 0B2D                             l3650 1494                             l3634 0886  
                           l3618 084F                             l3626 0864                             l3642 089D  
                           l3730 0CA2                             l3722 0C9B                             l3714 0C86  
                           l3706 0C7E                             l4098 1627                             l3554 075B  
                           l3546 0743                             l3538 071D                             l3490 05CF  
                           l3482 0570                             l3474 0520                             l3466 04A3  
                           l3458 047F                             l3386 0794                             l3570 0988  
                           l3562 095C                             l4194 023A                             l4186 0222  
                           l4178 01D6                             l4290 0BC2                             l4282 0BA6  
                           l4274 0B85                             l4266 0B67                             l4258 0B3A  
                           l3660 149D                             l3652 1495                             l3636 088F  
                           l3628 0869                             l3724 0C9E                             l3708 0C81  
                           l3820 0D7F                             l3548 074F                             l3492 05FA  
                           l3484 057E                             l3476 053C                             l3468 04BE  
                           l3396 07A2                             l3388 0796                             l3580 09BA  
                           l3572 0993                             l3564 096C                             l4196 024F  
                           l4188 0224                             l4292 0BC6                             l4284 0BAC  
                           l4276 0B8E                             l4268 0B6C                             l3654 1496  
                           l3646 1485                             l3670 16F8                             l3662 16EB  
                           l3638 0895                             l3750 0CE3                             l3734 0CB8  
                           l3726 0C9F                             l3718 0C89                             l3494 0608  
                           l3486 059B                             l3478 0545                             l3398 07B2  
                           l3590 09F3                             l3582 09C5                             l3574 099A  
                           l3566 097C                             l3558 0953                             l4198 025D  
                           l3830 0A25                             l3822 0A09                             l4366 0C4F  
                           l4294 0BCB                             l4286 0BB5                             l4278 0B92  
                           l3656 1499                             l3648 148F                             l3672 1706  
                           l3816 0D6E                             l3808 0D5C                             l3760 0D09  
                           l3752 0CF4                             l3744 0CDF                             l3496 0633  
                           l3488 05B2                             l3592 09F8                             l3584 09C9  
                           l3576 099C                             l3840 0A99                             l3832 0A40  
                           l3824 0A12                             l4296 0BD8                             l4288 0BBB  
                           l3658 149A                             l3690 1752                             l3674 170E  
                           l3762 0D0A                             l3754 0CF5                             l3746 0CE0  
                           l3738 0CCE                             l3498 0659                             l3594 09FC  
                           l3586 09D3                             l3578 09AA                             l3842 0A9F  
                           l3834 0A4B                             l3826 0A17                             l3850 08AB  
                           l4298 0BE5                             l2972 14A0                             l2980 156D  
                           l3684 1733                             l3676 1717                             l3668 16EF  
                           l3780 0D2B                             l3772 0D15                             l3764 0D0D  
                           l3692 0C61                             l3596 09FD                             l3588 09DD  
                           l3844 0ADB                             l3836 0A53                             l3828 0A1D  
                           l3860 08E4                             l3852 08B0                             l2974 14AA  
                           l2990 1598                             l2982 1575                             l3686 173C  
                           l3678 172F                             l3774 0D26                             l3766 0D0E  
                           l3758 0CF8                             l3694 0C64                             l3846 0AE1  
                           l3838 0A5B                             l3854 08B6                             l2976 14AC  
                           l2992 159B                             l2984 157C                             l3688 174A  
                           l3792 0D43                             l3784 0D2E                             l3776 0D27  
                           l3768 0D13                             l3856 08BE                             l3848 08A2  
                           l2978 14B2                             l2994 15A2                             l2986 158C  
                           l3794 0D54                             l3786 0D3F                             l3778 0D2A  
                           l3858 08D9                             l2996 15AE                             l2988 1591  
                           l3796 0D55                             l3788 0D40                             l2998 15B7  
                           l3798 0D58                             ?_isr 0070                             STR_1 1043  
                           STR_2 1111                             STR_3 1033                             STR_4 106D  
                           STR_5 10D5                             STR_6 10FE                             STR_7 1148  
                           STR_8 114E                             STR_9 10E0                             u4000 1686  
                           u4001 1685                             u4010 16AE                             u4011 16AD  
                           u4020 1450                             u4021 144F                             u4030 145B  
                           u4031 145A                             u5000 0895                             u5001 0894  
                           u5010 1717                             u4210 160C                             u5011 1716  
                           u4211 160B                             u3500 1515                             u5020 175B  
                           u4220 1611                             u4140 15C9                             u4300 076F  
                           u3501 1514                             u5021 175A                             u4221 1610  
                           u4205 1600                             u4141 15C8                             u4301 076E  
                           u4150 15D4                             u4230 1772                             u3510 0DB6  
                           u4310 0786                             u5030 0A12                             u4151 15D3  
                           u4231 1771                             u3511 0DB5                             u5031 0A11  
                           u4160 15DF                             u4240 178E                             u4400 0430  
                           u3600 0E47                             u3520 0DBC                             u4320 079A  
                           u5040 0A25                             u4161 15DE                             u4241 178D  
                           u4401 042F                             u3601 0E46                             u3521 0DBB  
                           u4321 0799                             u5041 0A24                             u4250 179A  
                           u4410 0436                             u3610 0E52                             u3530 0DC1  
                           u4330 07A1                             u5050 0A5B                             u4251 1799  
                           u4411 0435                             u3611 0E50                             u3531 0DC0  
                           u4331 07A0                             u4315 0781                             u5051 0A5A  
                           u4180 15EF                             u4420 043B                             u3700 0EB7  
                           u3620 0E53                             u3540 0DDE                             u5060 0A9F  
                           u4181 15EE                             u4261 17A9                             u4501 0512  
                           u4421 043A                             u3701 0EB6                             u3605 0E43  
                           u3541 0DDD                             u5061 0A9E                             u5310 1622  
                           u4190 15F9                             u4270 17C2                             u4262 17AA  
                           u4502 0519                             u4430 0458                             u3710 0EBB  
                           u3630 0E63                             u3550 0DE7                             u4350 07B1  
                           u5070 0AE1                             u5311 1621                             u4191 15F8  
                           u4175 15E3                             u4271 17C1                             u4263 17AF  
                           u4511 052E                             u4503 0520                             u4431 0457  
                           u3711 0EBA                             u3631 0E62                             u3551 0DE6  
                           u4351 07B0                             u5071 0AE0                             u3480 14A7  
                           u5400 1676                             u5320 162D                             u4264 17B0  
                           u4512 0535                             u4440 045E                             u3720 0EC8  
                           u3640 0E74                             u3560 0DED                             u4360 07B8  
                           u5080 08AB                             u3481 14A3                             u5401 1675  
                           u5321 162C                             u4281 17D1                             u4265 17B5  
                           u4601 064B                             u4513 053C                             u4441 045D  
                           u3721 0EC7                             u3641 0E73                             u3561 0DEC  
                           u4361 07B7                             u4345 07A3                             u5081 08AA  
                           u5330 163C                             u4290 17FC                             u4282 17D2  
                           u4266 17B6                             u4610 0667                             u4602 0652  
                           u4450 0463                             u3810 0F75                             u3570 0DF2  
                           u5410 0056                             u5090 08BE                             u5331 163B  
                           u4195 15F5                             u4291 17FB                             u4283 17D7  
                           u4603 0659                             u4531 0562                             u4451 0462  
                           u3811 0F74                             u3571 0DF1                             u5411 0055  
                           u5091 08BD                             _PEIE 005E                             u4284 17D8  
                           u4700 06D9                             u4532 0569                             u4460 047A  
                           u3900 0FC4                             u3820 0F7A                             u3740 0EED  
                           u3660 0E86                             u3580 0E0B                             u4380 07C9  
                           u5500 03E0                             u5420 0222                             u4285 17DD  
                           u4701 06D8                             u4621 0673                             u4541 058D  
                           u4533 0570                             u4525 053E                             u4461 0479  
                           u3821 0F79                             u3805 0F6A                             u3741 0EEC  
                           u3661 0E85                             u3581 0E0A                             u4381 07C8  
                           u5501 03DF                             u5421 0221                             u3494 14AA  
                           u5350 164C                             u4286 17DE                             u4710 06DF  
                           u4622 067A                             u4542 0594                             u4470 047F  
                           u3910 0FD3                             u3830 0F85                             u3670 0E8A  
                           u3590 0E0F                             u4390 07CE                             u5430 023A  
                           u5510 0B5C                             u5351 164B                             u4295 17F8  
                           u4711 06DE                             u4623 0681                             u4615 0662  
                           u4543 059B                             u4471 047E                             u3911 0FD2  
                           u3831 0F84                             u3751 0F04                             u3743 0EE9  
                           u3735 0ECB                             u3671 0E89                             u3655 0E77  
                           u3591 0E0E                             u4391 07CD                             u4375 07BB  
                           u5431 0239                             u5511 0B5B                             u4720 06F1  
                           u3920 0FDA                             u3840 0F8B                             u3760 0F18  
                           u3752 0F05                             u3680 0E8F                             u5440 024F  
                           u5600 0C29                             u5520 0B67                             u5345 1640  
                           u4721 06F0                             u4561 05C1                             u4481 04CC  
                           u3921 0FD9                             u3905 0FBF                             u3841 0F8A  
                           u3761 0F19                             u3753 0F0A                             u3681 0E8E  
                           u5441 024E                             u5601 0C28                             u5521 0B66  
                           u5370 165D                             u4730 0700                             u4650 06A5  
                           u4562 05C8                             u4482 04D3                             u3930 0FDF  
                           u3850 0F90                             u3770 0F35                             u3762 0F1E  
                           u3754 0F0B                             u4810 0999                             u5450 027F  
                           u5610 0C38                             u5530 0BA0                             u5371 165C  
                           u4651 06A4                             u4635 0683                             u4571 05EC  
                           u4563 05CF                             u4555 059D                             u4491 04E8  
                           u4483 04DA                             u3931 0FDE                             u3851 0F8F  
                           u3771 0F34                             u3763 0F1F                             u3755 0F10  
                           u3691 0EA5                             u4811 0998                             u5451 027E  
                           u5611 0C37                             u5531 0B9F                             u4740 071D  
                           u4572 05F3                             u4492 04EF                             u3940 0FEC  
                           u3860 0F96                             u3780 0F5A                             u3756 0F11  
                           u3692 0EAC                             u4900 09FC                             u5460 02A1  
                           u5540 0BA6                             u5365 164D                             u4741 071C  
                           u4645 069A                             u4581 0617                             u4573 05FA  
                           u4493 04F6                             u3941 0FEB                             u3861 0F95  
                           u3781 0F59                             u3693 0EB3                             u4901 09FB  
                           u4805 098B                             u5461 02A0                             u5445 024B  
                           u5541 0BA5                             u4910 0837                             u5390 1671  
                           u4750 0737                             u4670 06B9                             u4590 063F  
                           u4582 061E                             u3950 0FF1                             u3870 0F9D  
                           u3790 0F5F                             u4830 09B9                             u5470 0327  
                           u5550 0BAC                             u4911 0836                             u5391 1670  
                           u5375 1659                             u4751 0736                             u4735 06FB  
                           u4671 06B8                             u4583 0625                             u3951 0FF0  
                           u3871 0F9C                             u3791 0F5E                             u4831 09B8  
                           u5471 0326                             u5455 027B                             u5551 0BAB  
                           u4920 083C                             u4760 0753                             u4680 06BE  
                           u3960 0FFE                             u3880 0FA3                             u5480 0349  
                           u5560 0BBB                             u4921 083B                             u5385 1665  
                           u4761 0752                             u4745 0719                             u4681 06BD  
                           u4665 06A8                             u3961 0FFD                             u3881 0FA2  
                           u4825 09AB                             u5481 0348                             u5561 0BBA  
                           i1l74 1566                             u4930 084A                             u3970 0812  
                           u4690 06D2                             u3890 0FB5                             u4850 09C9  
                           u4770 0958                             u5490 03DB                             u5570 0BC2  
                           u5707 158E                             u4931 0849                             u3971 0811  
                           u4755 0733                             u4691 06D1                             u4595 063A  
                           u3891 0FB4                             u4851 09C8                             u4771 0957  
                           u5491 03DA                             u5571 0BC1                             u5627 0B79  
                           u4940 084F                             u4860 09CF                             u4780 095C  
                           u5580 0BFE                             u5717 15A4                             u4941 084E  
                           u4861 09CE                             u4845 09BE                             u4781 095B  
                           u5637 010C                             u5581 0BFD                             u4950 0860  
                           u3990 0826                             u4870 09D3                             u4790 097C  
                           u5590 0C05                             u5727 15B2                             u4951 085F  
                           u3991 0825                             u4871 09D2                             u4791 097B  
                           u5647 0409                             u5591 0C04                             u4960 0869  
                           u4880 09E8                             u5737 15C0                             u4961 0868  
                           u3985 0819                             u5657 1444                             u4970 0878  
                           u4890 09F8                             u5747 14AF                             u5667 1700  
                           u4971 0877                             u4955 085C                             u4891 09F7  
                           u4980 0886                             u5757 14B9                             u5677 1744  
                           u4981 0885                             u4885 09E3                             u4990 088F  
                           u5687 1571                             u4991 088E                             u4975 0874  
                           u5697 1580                             _main 0B1B                             _time 0068  
                           btemp 007E                             start 000C                ___bmul@multiplier 0074  
                 clcd_write@byte 0075                   clcd_write@mode 0072                            ??_isr 0070  
                  ___fltol@sign1 0076                  __end_of___fladd 1000                            ?_main 0070  
                __end_of___awdiv 1680                            STR_10 1129                            STR_11 10BF  
                          STR_20 1163                            STR_12 1092                            STR_21 1122  
                          STR_13 111A                            STR_30 109E                            STR_22 1154  
                          STR_14 10CA                            STR_31 115E                            STR_23 1167  
                          STR_15 10F4                            STR_32 10D5                            STR_40 10C5  
                          STR_24 1086                            STR_16 1108                            STR_25 1033  
                          STR_33 10A9                            STR_41 1012                            STR_17 10EA  
                          STR_34 10C5                            STR_42 1052                            STR_26 1023  
                          STR_18 10B4                            STR_35 1142                            STR_27 107A  
                          STR_43 1060                            STR_19 1159                            STR_28 113C  
                          STR_36 1130                            STR_44 1000                  __end_of___awmod 161B  
                          STR_45 109E                            STR_37 1142                            STR_29 1136  
                          STR_38 1130                            STR_46 115E                            STR_39 1130  
                          STR_47 10D5                            STR_48 10A9                  __end_of___flmul 0764  
                __end_of___flsub 14E3                  __end_of___fltol 07DA                  ___awdiv@divisor 0072  
                   ?_init_config 0070                  ___awdiv@counter 0020                            _PORTB 0006  
                          _PORTD 0008                            _TRISB 0086                            _TRISD 0088  
                   ?_init_timer2 0070                            _level 006B                            _start 0045  
                          pclath 000A                            status 0003                            wtemp0 007E  
                __initialization 000F                     __end_of_main 0C61                    main@delay_127 00CF  
            washing_program_@key 0027                           ??_main 0065                 power_ON_screen@i 0028  
               ___awdiv@dividend 0074                           ?_start 0070                           i1l2840 1537  
                         i1l2850 1555                           i1l2842 153E                           i1l2852 1557  
                         i1l2844 1540                           i1l2836 1516                           i1l2854 1559  
                         i1l2846 154B                           i1l2838 151C                           i1l2848 1550  
                         i1l2856 1563                           u332_20 151C                           u332_21 151B  
                         u333_20 1537                           u333_21 1536                           u334_20 153E  
                         u334_21 153D                           u335_20 1550                           u335_21 154F  
                         u336_20 1555                           u336_21 1554                           _TMR2IE 0461  
                         _TMR2IF 0061                           _TMR2ON 0092                           _TRISC1 0439  
                         _TRISC2 043A                           _TRISE1 0449                           _TRISE2 044A  
               __end_of___xxtofl 0A06      __end_of_init_digital_keypad 1423                           ___flge 175C  
                         ___bmul 144A          _init_display_controller 156D                        ??___fladd 0028  
                      ??___awdiv 0076                        ??___awmod 0076                        ??___flmul 0032  
                      ??___flsub 0076                        ??___fltol 0048                 ___awdiv@quotient 0022  
                ___awmod@divisor 0072                  ___awmod@counter 0076                     __pdataCOMMON 0079  
               __end_of_set_time 0DA8                           saved_w 007E                       ___flge@ff1 004C  
                     ___flge@ff2 0050                     ___xxtofl@arg 0026                     ___xxtofl@exp 0025  
                   ___xxtofl@val 0072          __end_of__initialization 0041                       ___fltol@f1 0044  
            ___bmul@multiplicand 0072                   __pcstackCOMMON 0070                     __pidataBANK1 07DA  
                  __end_of_start 0422                          ??_start 0058                       __pbssBANK0 0068  
                     __pbssBANK1 00C6        ??_init_display_controller 0076                       _clcd_print 14E3  
                     _clcd_putch 1470                       _clcd_write 149F                __end_of__Umul8_16 082B  
                     _clear_clcd 1439                       __pmaintext 0B1B                          ?___flge 004C  
                        ?___bmul 0072                       __pintentry 0004      __end_of_read_digital_keypad 089F  
                      ?___xxtofl 0072                       __stringtab 116B                        ?_set_time 0070  
                        ___fladd 0DA8                          ___awdiv 161B                          ___awmod 15C4  
                        ___flmul 0422                          ___flsub 14BF                          ___fltol 0764  
                        __ptext1 089F                          __ptext2 0A06                          __ptext3 0045  
                        __ptext4 1680                          __ptext5 1439                          __ptext6 0950  
                        __ptext7 0764                          __ptext8 14BF                          __ptext9 0DA8  
__end_of_init_display_controller 15C4                __end_of_init_clcd 142E           read_digital_keypad@key 0072  
                     ??___xxtofl 0020                 ___awmod@dividend 0074                 _washing_program_ 0A06  
                        main@key 00D1             end_of_initialization 0041                      ?_clcd_print 0020  
                    ?_clcd_putch 0078                      ?_clcd_write 0072                       _reset_flag 00C2  
                    ?_clear_clcd 0070                       ??_set_time 0072                     __pstringtext 1000  
                     _rinse_time 00CB                      ___fladd@grs 0075                       _program_no 006C  
                  ___xxtofl@sign 0024                    clcd_print@str 0020                ??_power_ON_screen 0025  
                    ___flmul@grs 0039                       _total_time 006A                   __end_of___flge 1800  
                 __end_of___bmul 145D                    __pidataCOMMON 141A              start_initialization 000F  
                    __end_of_isr 156D            water_level_screen@key 0027                         ??___flge 0054  
                       ??___bmul 0073                       init_fetch0 145D                        __Umul8_16 0802  
     __end_of_water_level_screen 0950                      __pdataBANK1 00A0       read_digital_keypad@pre_key 00CC  
                  ??_init_config 0078                        ___fladd@a 0024                        ___fladd@b 0020  
                  ??_init_timer2 0072                        ___flmul@a 002E                        ___flmul@b 002A  
                      ___flsub@a 0044                        ___flsub@b 0048                        ___latbits 0002  
                  __pcstackBANK0 0020                    __pcstackBANK1 00CD                _operational_state 0079  
       __end_of_washing_program_ 0B1B             power_ON_screen@i_183 002A                         ?___fladd 0020  
                       ?___awdiv 0072                         ?___awmod 0072                         ?___flmul 002A  
                       ?___flsub 0044                         ?___fltol 0044                       ?__Umul8_16 0072  
                      __pstrings 116B                        _init_clcd 1423              __end_of_init_config 149F  
 read_digital_keypad@longpressed 00C4              __end_of_init_timer2 1439                  _washing_program 00A0  
       ?_init_display_controller 0070                interrupt_function 0004                     ??_clcd_print 0078  
                   ??_clcd_putch 0079                     ??_clcd_write 0073                     ??_clear_clcd 0076  
                      _wash_time 0069                        _spin_time 00CA                  _power_ON_screen 16EB  
                    __stringbase 117D                        main@delay 00CD               __end_of_clcd_print 1516  
             __end_of_clcd_putch 1485               __end_of_clcd_write 14BF                       ?_init_clcd 0070  
             __end_of_clear_clcd 144A              _init_digital_keypad 141D                      ??__Umul8_16 0074  
            _water_level_options 00B8             ?_init_digital_keypad 0070               __end_of__stringtab 117D  
                    _init_config 1485                         ___xxtofl 0950                      _init_timer2 142E  
                       __ptext10 0422                         __ptext11 0802                         __ptext20 14E3  
                       __ptext12 175C                         __ptext21 1485                         __ptext13 144A  
                       __ptext22 142E                         __ptext14 15C4                         __ptext23 141D  
                       __ptext15 161B                         __ptext24 1423                         __ptext16 0C61  
                       __ptext25 156D                         __ptext17 082B                         __ptext26 149F  
                       __ptext18 16EB                         __ptext27 1516                         __ptext19 1470  
        read_digital_keypad@mode 0070          read_digital_keypad@once 007B                         _set_time 0C61  
        __end_of_power_ON_screen 175C            ??_init_digital_keypad 0072                _door_status_check 1680  
             ?_door_status_check 0070                         isr@count 00C6              ??_door_status_check 0078  
                       init_ram0 1461               _water_level_screen 089F                      ??_init_clcd 0078  
                       intlevel1 0000              ?_water_level_screen 0070                        stringcode 1175  
              ?_washing_program_ 0070        __end_of_door_status_check 16EB               ??_washing_program_ 0025  
            _read_digital_keypad 082B                         start@key 0064             ??_water_level_screen 0025  
         __Umul8_16@multiplicand 0072                         stringtab 116B                    ___fladd@signs 0072  
           ?_read_digital_keypad 0070                     ___fladd@aexp 0073                     ___fladd@bexp 0074  
           __Umul8_16@multiplier 0024                __Umul8_16@product 0020  
